
vrased.elf:     file format elf32-msp430

SYMBOL TABLE:
0000e000 l    d  .text	00000000 .text
0000a000 l    d  .srom	00000000 .srom
00000200 l    d  .data	00000000 .data
00000228 l    d  .sstack	00000000 .sstack
00001228 l    d  .bss	00000000 .bss
00001340 l    d  .noinit	00000000 .noinit
0000ffe0 l    d  .vectors	00000000 .vectors
00000000 l    d  .debug_aranges	00000000 .debug_aranges
00000000 l    d  .debug_info	00000000 .debug_info
00000000 l    d  .debug_abbrev	00000000 .debug_abbrev
00000000 l    d  .debug_line	00000000 .debug_line
00000000 l    d  .debug_frame	00000000 .debug_frame
00000000 l    d  .debug_str	00000000 .debug_str
00000000 l    d  .debug_loc	00000000 .debug_loc
00000000 l    d  .debug_ranges	00000000 .debug_ranges
00000000 l    df *ABS*	00000000 main.c
0000e06a l       .text	00000000 __br_unexpected_
00000000 l    df *ABS*	00000000 wrapper.c
00000000 l    df *ABS*	00000000 Hacl_HMAC_SHA2_256.c
0000aff6 l     F .srom	00000362 Hacl_Impl_SHA2_256_init
0000b358 l     F .srom	00000028 Hacl_Impl_HMAC_SHA2_256_xor_bytes_inplace
0000b380 l     F .srom	00000634 Hacl_Impl_SHA2_256_update
0000b9b4 l     F .srom	00000046 Hacl_Impl_SHA2_256_update_multi
0000b9fa l     F .srom	00000262 Hacl_Impl_SHA2_256_update_last
0000bc5c l     F .srom	000000e6 Hacl_Impl_SHA2_256_finish
0000bd42 l     F .srom	000000a0 Hacl_Impl_SHA2_256_hash
0000bde2 l     F .srom	0000015c Hacl_Impl_HMAC_SHA2_256_hmac_core
00000000 l    df *ABS*	00000000 memcpy.c
00000000 l    df *ABS*	00000000 memset.c
00001228 g     O .bss	00000001 rx_end
00010000 g       *ABS*	00000000 _far_end
00000028 g       *ABS*	00000000 __data_size
0000e06a  w      .text	00000000 __isr_14
0000e08c g     F .text	0000000a initLed
0000a150 g     F .srom	00000048 secure_memcmp
0000e06a  w      .text	00000000 __isr_4
00000138 g       *ABS*	00000000 __OP2
0000a26c g     F .srom	000000ae recv_buf
0000afa6 g     F .srom	00000050 time_sync
00010000 g       *ABS*	00000000 _efartext
00000130 g       *ABS*	00000000 __MPY
0000013a g       *ABS*	00000000 __RESLO
00000136 g       *ABS*	00000000 __MACS
0000e000 g       *ABS*	00000000 _etext
00000118 g       *ABS*	00000000 __bss_size
0000e000  w      .text	00000000 __watchdog_support
0000e064  w      .text	00000000 __stop_progExec__
0000bfae g     F .srom	000000fa memcpy
0000a09e g     F .srom	000000b2 CASU_update_install
0000a226 g       .srom	00000000 __isr_11
0000122c g     O .bss	00000004 parent
0000bf3e g     F .srom	00000006 hash
0000122a g     O .bss	00000001 rx_start
0000e06a  w      .text	00000000 __isr_5
0000e100 g       *ABS*	00000000 __data_load_start
0000e06a g       .text	00000000 __dtors_end
00001340 g       .bss	00000000 __bss_end
0000e06a  w      .text	00000000 __isr_2
0000e096 g     F .text	00000068 CASU_secure_update
0000e06a  w      .text	00000000 __isr_10
0000013c g       *ABS*	00000000 __RESHI
00001340 g     O .noinit	00000002 __wdt_clear_value
0000e06a  w      .text	00000000 __isr_7
0000ffe0 g     O .vectors	00000020 __ivtbl_16
0000123c g     O .bss	00000100 rxdata
0000c112 g       .srom	00000000 __cur_offset
0000e06a  w      .text	00000000 __isr_0
00000204 g     O .data	00000004 cur_hash_idx
0000e028  w      .text	00000000 __do_clear_bss
0000a000 g     F .srom	00000046 tcb_entry
0000dffe g     F .srom	00000002 CASU_exit
0000133c g     O .bss	00000004 epoch_time
0000e0fe  w      .text	00000000 _unexpected_
0000e06a  w      .text	00000000 __isr_8
0000a046 g     F .srom	0000002a CASU_jump_to_ER_routine_init
0000e06a  w      .text	00000000 __isr_3
0000ffe0 g       .vectors	00000000 __vectors_start
0000a000  w      .srom	00000000 _reset_vector__
0000e06a g       .text	00000000 __ctors_start
0000e06a  w      .text	00000000 __isr_12
0000e010  w      .text	00000000 __do_copy_data
0000a35e g     F .srom	00000c48 read_byte
00001228 g       .bss	00000000 __bss_start
0000c0a8 g     F .srom	0000006a memset
0000e03e g     F .text	00000026 main
0000e06a  w      .text	00000000 __isr_13
00010000 g       .vectors	00000000 _vectors_end
00001238 g     O .bss	00000004 cur_seq
00001230 g     O .bss	00000008 count
00001340 g       .noinit	00000000 __noinit_start
0000e06a  w      .text	00000000 __isr_9
00001342 g       .noinit	00000000 __noinit_end
0000e00c  w      .text	00000000 __init_stack
0000e06a g       .text	00000000 __dtors_start
0000e06a  w      .text	00000000 __isr_6
0000e06a g       .text	00000000 __ctors_end
00000132 g       *ABS*	00000000 __MPYS
00006200 g       *ABS*	00000000 __stack
0000e06a  w      .text	00000000 __isr_1
00000228 g       .data	00000000 _edata
0000a198 g     F .srom	0000008e CASU_update_authenticate
00001342 g       *ABS*	00000000 _end
00000208 g     O .data	00000020 cur_hash
0000dffe g       .srom	00000000 __mac_leave
00000134 g       *ABS*	00000000 __MAC
0000a226 g     F .srom	00000046 uart
0000e064  w      .text	00000000 _endless_loop__
0000a31a g     F .srom	00000044 send_buf
0000a070 g     F .srom	0000002e CASU_jump_to_ER_routine
0000e010  w      .text	00000000 __low_level_init
00000200 g       .data	00000000 __data_start
00000120 g       *ABS*	00000000 __WDTCTL
0000bf44 g     F .srom	00000010 hmac_core
0000bf54 g     F .srom	0000005a hmac
0000013e g       *ABS*	00000000 __SUMEXT
0000e06e g     F .text	0000001e delayMicroseconds
00000200 g     O .data	00000004 dev_id



Disassembly of section .text:

0000e000 <__watchdog_support>:
    e000:	55 42 20 01 	mov.b	&0x0120,r5	
    e004:	35 d0 08 5a 	bis	#23048,	r5	;#0x5a08
    e008:	82 45 40 13 	mov	r5,	&0x1340	

0000e00c <__init_stack>:
    e00c:	31 40 00 62 	mov	#25088,	r1	;#0x6200

0000e010 <__do_copy_data>:
    e010:	3f 40 28 00 	mov	#40,	r15	;#0x0028
    e014:	0f 93       	tst	r15		
    e016:	08 24       	jz	$+18     	;abs 0xe028
    e018:	92 42 40 13 	mov	&0x1340,&0x0120	
    e01c:	20 01 
    e01e:	2f 83       	decd	r15		
    e020:	9f 4f 00 e1 	mov	-7936(r15),512(r15);0xe100(r15), 0x0200(r15)
    e024:	00 02 
    e026:	f8 23       	jnz	$-14     	;abs 0xe018

0000e028 <__do_clear_bss>:
    e028:	3f 40 18 01 	mov	#280,	r15	;#0x0118
    e02c:	0f 93       	tst	r15		
    e02e:	07 24       	jz	$+16     	;abs 0xe03e
    e030:	92 42 40 13 	mov	&0x1340,&0x0120	
    e034:	20 01 
    e036:	1f 83       	dec	r15		
    e038:	cf 43 28 12 	mov.b	#0,	4648(r15);r3 As==00, 0x1228(r15)
    e03c:	f9 23       	jnz	$-12     	;abs 0xe030

0000e03e <main>:

int main()
{
  /*this WTD stuff needs to go inside of wrapper*/
  // Switch off the WTD
  __eint();
    e03e:	32 d2       	eint			
  uint32_t *wdt = (uint32_t *)(WDTCTL_);
  *wdt = WDTPW | WDTHOLD;
    e040:	b2 40 80 5a 	mov	#23168,	&0x0120	;#0x5a80
    e044:	20 01 
    e046:	82 43 22 01 	mov	#0,	&0x0122	;r3 As==00

  int i;
  const int iter = 5;

  // Set the LED
  initLed();
    e04a:	b0 12 8c e0 	call	#0xe08c	

  //Sample application: Blinking P3, easier for end user to generate interrupts
  while(1)
  {
    i++;
    delayMicroseconds(200000);
    e04e:	3f 40 40 0d 	mov	#3392,	r15	;#0x0d40
    e052:	b0 12 6e e0 	call	#0xe06e	
    P3OUT = ~P3OUT;
    e056:	3f 40 19 00 	mov	#25,	r15	;#0x0019
    e05a:	6e 4f       	mov.b	@r15,	r14	
    e05c:	7e e3       	xor.b	#-1,	r14	;r3 As==11
    e05e:	cf 4e 00 00 	mov.b	r14,	0(r15)	;0x0000(r15)
    e062:	f5 3f       	jmp	$-20     	;abs 0xe04e

0000e064 <__stop_progExec__>:
    e064:	32 d0 f0 00 	bis	#240,	r2	;#0x00f0
    e068:	fd 3f       	jmp	$-4      	;abs 0xe064

0000e06a <__ctors_end>:
    e06a:	30 40 fe e0 	br	#0xe0fe	

0000e06e <delayMicroseconds>:
    0xaf, 0x42, 0x75, 0xcb, 0x4c, 0x4d, 0x77, 0x39,
    0x14, 0x87, 0xb6, 0x6d, 0x4f, 0x37, 0x6d, 0xfc,
    0xea, 0x5f, 0x73, 0x84, 0x27, 0x9c, 0x7a, 0x89};

void delayMicroseconds(unsigned int delay)
{
    e06e:	21 83       	decd	r1		
  volatile unsigned int j;
  for (j = 0; j < delay; j++);
    e070:	81 43 00 00 	mov	#0,	0(r1)	;r3 As==00, 0x0000(r1)
    e074:	2e 41       	mov	@r1,	r14	
    e076:	0e 9f       	cmp	r15,	r14	
    e078:	07 2c       	jc	$+16     	;abs 0xe088
    e07a:	2e 41       	mov	@r1,	r14	
    e07c:	1e 53       	inc	r14		
    e07e:	81 4e 00 00 	mov	r14,	0(r1)	;0x0000(r1)
    e082:	2e 41       	mov	@r1,	r14	
    e084:	0e 9f       	cmp	r15,	r14	
    e086:	f9 2b       	jnc	$-12     	;abs 0xe07a
}
    e088:	21 53       	incd	r1		
    e08a:	30 41       	ret			

0000e08c <initLed>:

void initLed() 
{
  P3DIR  =  0xFF;
    e08c:	f2 43 1a 00 	mov.b	#-1,	&0x001a	;r3 As==11
  P3OUT  =  0x00;
    e090:	c2 43 19 00 	mov.b	#0,	&0x0019	;r3 As==00
}
    e094:	30 41       	ret			

0000e096 <CASU_secure_update>:
                   "\n\t");
}

/* Update routine in SW */
void CASU_secure_update(uint8_t *update_code, uint8_t *signature)
{
    e096:	0b 12       	push	r11		
    e098:	0a 12       	push	r10		
    e09a:	09 12       	push	r9		

  uint16_t new_ep_start = 0;
  uint16_t new_ep_end = 0;
  uint16_t update_code_size = *(uint16_t *)(update_code + OFFSET_SW_SIZE);
    e09c:	2a 4f       	mov	@r15,	r10	
    uint8_t *data,
    uint32_t datalen);

__attribute__((section(".do_mac.lib"))) inline void my_memcpy(uint8_t *dst, uint8_t *src, int size)
{
  for (int i = 0; i < size; i++)
    e09e:	0d 43       	clr	r13		
  __asm__ volatile("br   r5"
                   "\n\t");
}

/* Update routine in SW */
void CASU_secure_update(uint8_t *update_code, uint8_t *signature)
    e0a0:	0c 4e       	mov	r14,	r12	
    e0a2:	0c 5d       	add	r13,	r12	
    uint32_t datalen);

__attribute__((section(".do_mac.lib"))) inline void my_memcpy(uint8_t *dst, uint8_t *src, int size)
{
  for (int i = 0; i < size; i++)
    dst[i] = src[i];
    e0a4:	ed 4c d0 03 	mov.b	@r12,	976(r13);0x03d0(r13)
    uint8_t *data,
    uint32_t datalen);

__attribute__((section(".do_mac.lib"))) inline void my_memcpy(uint8_t *dst, uint8_t *src, int size)
{
  for (int i = 0; i < size; i++)
    e0a8:	1d 53       	inc	r13		
    e0aa:	3d 90 20 00 	cmp	#32,	r13	;#0x0020
    e0ae:	f8 23       	jnz	$-14     	;abs 0xe0a0
  uint16_t update_code_size = *(uint16_t *)(update_code + OFFSET_SW_SIZE);
  // Copy input signature to SIG_RESP_ADDR:
  my_memcpy((uint8_t *)SIG_RESP_ADDR, signature, SIZE_SIGNATURE);

  // Check EP_START and decide where to write the update_code.
  if ((*(uint16_t *)EP_START >= ER_FIRST_SW_START) && (*(uint16_t *)EP_START < ER_SECOND_SW_START))
    e0b0:	1e 42 40 01 	mov	&0x0140,r14	
    e0b4:	3e 50 00 20 	add	#8192,	r14	;#0x2000
    e0b8:	3e 90 00 10 	cmp	#4096,	r14	;#0x1000
    e0bc:	03 2c       	jc	$+8      	;abs 0xe0c4
  {
    new_ep_start = ER_SECOND_SW_START;
    e0be:	3b 40 00 f0 	mov	#-4096,	r11	;#0xf000
    e0c2:	02 3c       	jmp	$+6      	;abs 0xe0c8
  }
  else
  {
    new_ep_start = ER_FIRST_SW_START;
    e0c4:	3b 40 00 e0 	mov	#-8192,	r11	;#0xe000
  }
  new_ep_end = new_ep_start + update_code_size - 2;
    e0c8:	09 4a       	mov	r10,	r9	
    e0ca:	29 83       	decd	r9		
    e0cc:	09 5b       	add	r11,	r9	
    uint8_t *data,
    uint32_t datalen);

__attribute__((section(".do_mac.lib"))) inline void my_memcpy(uint8_t *dst, uint8_t *src, int size)
{
  for (int i = 0; i < size; i++)
    e0ce:	1a 93       	cmp	#1,	r10	;r3 As==01
    e0d0:	0b 38       	jl	$+24     	;abs 0xe0e8
  __asm__ volatile("br   r5"
                   "\n\t");
}

/* Update routine in SW */
void CASU_secure_update(uint8_t *update_code, uint8_t *signature)
    e0d2:	0c 4b       	mov	r11,	r12	
    e0d4:	0c 5a       	add	r10,	r12	
    e0d6:	0e 4b       	mov	r11,	r14	
    e0d8:	0f 8b       	sub	r11,	r15	
    e0da:	0d 4f       	mov	r15,	r13	
    e0dc:	0d 5e       	add	r14,	r13	
    uint32_t datalen);

__attribute__((section(".do_mac.lib"))) inline void my_memcpy(uint8_t *dst, uint8_t *src, int size)
{
  for (int i = 0; i < size; i++)
    dst[i] = src[i];
    e0de:	ee 4d 00 00 	mov.b	@r13,	0(r14)	;0x0000(r14)
    e0e2:	1e 53       	inc	r14		
    uint8_t *data,
    uint32_t datalen);

__attribute__((section(".do_mac.lib"))) inline void my_memcpy(uint8_t *dst, uint8_t *src, int size)
{
  for (int i = 0; i < size; i++)
    e0e4:	0e 9c       	cmp	r12,	r14	
    e0e6:	f9 23       	jnz	$-12     	;abs 0xe0da
  }
  new_ep_end = new_ep_start + update_code_size - 2;

  // Write the update_code at that location and update B_EP_START.
  my_memcpy((uint8_t *)new_ep_start, update_code, update_code_size);
  *(uint16_t *)B_EP_START = new_ep_start;
    e0e8:	82 4b da ff 	mov	r11,	&0xffda	
  *(uint16_t *)B_EP_END = new_ep_end;
    e0ec:	82 49 dc ff 	mov	r9,	&0xffdc	

  // Set r4 as 1
  __asm__ volatile("mov    #1,  r4"
    e0f0:	14 43       	mov	#1,	r4	;r3 As==01
    __asm__ volatile("push r2" "\n\t");
    __asm__ volatile("mov    #1,  r4" "\n\t");
    __asm__ volatile("pop r4" "\n\t");*/

  // Call CASU:
  tcb_entry();
    e0f2:	b0 12 00 a0 	call	#0xa000	
}
    e0f6:	39 41       	pop	r9		
    e0f8:	3a 41       	pop	r10		
    e0fa:	3b 41       	pop	r11		
    e0fc:	30 41       	ret			

0000e0fe <_unexpected_>:
    e0fe:	00 13       	reti			

Disassembly of section .srom:

0000a000 <tcb_entry>:
uint8_t rx_end = 0;

// REQ MSG: 0 ||  Snd  || Auth_req ||  Seq || HashIdx || Hash || Time
//       (1byte) (4byte)  (4byte)    (4byte)  (4byte)  (32byte)  (4byte)
__attribute__((section(".do_mac.call"))) void tcb_entry()
{
    a000:	0b 12       	push	r11		

  /********** SETUP ON ENTRY **********/

  __asm__ volatile("mov    #0x1000,     r1"
    a002:	31 40 00 10 	mov	#4096,	r1	;#0x1000
                   "\n\t");
  __asm__ volatile("dint"
    a006:	32 c2       	dint			
                   "\n\t");

  if (*(uint8_t *)SCACHE_FLAG != 0)
    a008:	c2 93 df ff 	tst.b	&0xffdf	
    a00c:	02 24       	jz	$+6      	;abs 0xa012
  {
    CASU_update_install();
    a00e:	b0 12 9e a0 	call	#0xa09e	
  }

  __asm__ volatile("cmp.w #1, r4"
    a012:	14 93       	cmp	#1,	r4	;r3 As==01
                   "\n\t");
  __asm__ volatile("jeq    CASU_update_authenticate"
    a014:	c1 24       	jz	$+388    	;abs 0xa198
                   "\n\t");

  uint32_t *wdt = (uint32_t *)(WDTCTL_);
  *wdt = WDTPW | WDTHOLD;
    a016:	b2 40 80 5a 	mov	#23168,	&0x0120	;#0x5a80
    a01a:	20 01 
    a01c:	82 43 22 01 	mov	#0,	&0x0122	;r3 As==00

  // Init UART
  UART_BAUD = BAUD;
    a020:	b2 40 58 14 	mov	#5208,	&0x0082	;#0x1458
    a024:	82 00 
  UART_CTL = UART_EN; // SMCLK, contmode
    a026:	3b 40 80 00 	mov	#128,	r11	;#0x0080
    a02a:	db 43 00 00 	mov.b	#1,	0(r11)	;r3 As==01, 0x0000(r11)

  P3DIR = 0xFF;
    a02e:	f2 43 1a 00 	mov.b	#-1,	&0x001a	;r3 As==11
  P3OUT = 0xFF;
    a032:	f2 43 19 00 	mov.b	#-1,	&0x0019	;r3 As==11

  time_sync();
    a036:	b0 12 a6 af 	call	#0xafa6	

  UART_CTL = UART_EN | UART_IEN_RX;
    a03a:	fb 40 11 00 	mov.b	#17,	0(r11)	;#0x0011, 0x0000(r11)
    a03e:	00 00 

  __asm__ volatile("jmp    CASU_jump_to_ER_routine_init"
    a040:	02 3c       	jmp	$+6      	;abs 0xa046
                   "\n\t");
}
    a042:	3b 41       	pop	r11		
    a044:	30 41       	ret			

0000a046 <CASU_jump_to_ER_routine_init>:

__attribute__((section(".do_mac.body"))) void CASU_jump_to_ER_routine_init()
{

  // Read the ER start address from EP_START and store in r5
  __asm__ volatile("mov    #0x0140,   r5"
    a046:	35 40 40 01 	mov	#320,	r5	;#0x0140
                   "\n\t");
  __asm__ volatile("mov    @(r5),     r5"
    a04a:	25 45       	mov	@r5,	r5	
                   "\n\t");

  // Set the Stack Pointer to ER Stack before leaving CASU
  __asm__ volatile("mov    #0x6200,     r1"
    a04c:	31 40 00 62 	mov	#25088,	r1	;#0x6200
                   "\n\t");
  __asm__ volatile("clr    r3"
    a050:	03 43       	nop			
                   "\n\t");
  __asm__ volatile("clr    r4"
    a052:	04 43       	clr	r4		
                   "\n\t");
  __asm__ volatile("clr    r6"
    a054:	06 43       	clr	r6		
                   "\n\t");
  __asm__ volatile("clr    r7"
    a056:	07 43       	clr	r7		
                   "\n\t");
  __asm__ volatile("clr    r8"
    a058:	08 43       	clr	r8		
                   "\n\t");
  __asm__ volatile("clr    r9"
    a05a:	09 43       	clr	r9		
                   "\n\t");
  __asm__ volatile("clr    r10"
    a05c:	0a 43       	clr	r10		
                   "\n\t");
  __asm__ volatile("clr    r11"
    a05e:	0b 43       	clr	r11		
                   "\n\t");
  __asm__ volatile("clr    r12"
    a060:	0c 43       	clr	r12		
                   "\n\t");
  __asm__ volatile("clr    r13"
    a062:	0d 43       	clr	r13		
                   "\n\t");
  __asm__ volatile("clr    r14"
    a064:	0e 43       	clr	r14		
                   "\n\t");
  __asm__ volatile("clr    r15"
    a066:	0f 43       	clr	r15		
                   "\n\t");

  // Jump to CASU_exit
  __eint();
    a068:	32 d2       	eint			
  __asm__ volatile("br      #__mac_leave"
    a06a:	30 40 fe df 	br	#0xdffe	
                   "\n\t");
}
    a06e:	30 41       	ret			

0000a070 <CASU_jump_to_ER_routine>:

__attribute__((section(".do_mac.body"))) void CASU_jump_to_ER_routine()
{

  // Read the ER start address from EP_START and store in r5
  __asm__ volatile("mov    #0x0140,   r5"
    a070:	35 40 40 01 	mov	#320,	r5	;#0x0140
                   "\n\t");
  __asm__ volatile("mov    @(r5),     r5"
    a074:	25 45       	mov	@r5,	r5	
                   "\n\t");
  // Jump to the starting of the software. The header size is 36
  __asm__ volatile("add    #36,     r5"
    a076:	35 50 24 00 	add	#36,	r5	;#0x0024
                   "\n\t");

  // Set the Stack Pointer to ER Stack before leaving CASU
  __asm__ volatile("mov    #0x6200,     r1"
    a07a:	31 40 00 62 	mov	#25088,	r1	;#0x6200
                   "\n\t");
  __asm__ volatile("clr    r3"
    a07e:	03 43       	nop			
                   "\n\t");
  __asm__ volatile("clr    r4"
    a080:	04 43       	clr	r4		
                   "\n\t");
  __asm__ volatile("clr    r6"
    a082:	06 43       	clr	r6		
                   "\n\t");
  __asm__ volatile("clr    r7"
    a084:	07 43       	clr	r7		
                   "\n\t");
  __asm__ volatile("clr    r8"
    a086:	08 43       	clr	r8		
                   "\n\t");
  __asm__ volatile("clr    r9"
    a088:	09 43       	clr	r9		
                   "\n\t");
  __asm__ volatile("clr    r10"
    a08a:	0a 43       	clr	r10		
                   "\n\t");
  __asm__ volatile("clr    r11"
    a08c:	0b 43       	clr	r11		
                   "\n\t");
  __asm__ volatile("clr    r12"
    a08e:	0c 43       	clr	r12		
                   "\n\t");
  __asm__ volatile("clr    r13"
    a090:	0d 43       	clr	r13		
                   "\n\t");
  __asm__ volatile("clr    r14"
    a092:	0e 43       	clr	r14		
                   "\n\t");
  __asm__ volatile("clr    r15"
    a094:	0f 43       	clr	r15		
                   "\n\t");

  // Jump to CASU_exit
  __eint();
    a096:	32 d2       	eint			
  __asm__ volatile("br      #__mac_leave"
    a098:	30 40 fe df 	br	#0xdffe	
                   "\n\t");
}
    a09c:	30 41       	ret			

0000a09e <CASU_update_install>:
  // Otherwise, jump to CASU_jump_to_ER_routine_init()
  CASU_jump_to_ER_routine_init();
}

__attribute__((section(".do_mac.body"))) void CASU_update_install()
{
    a09e:	0b 12       	push	r11		
    a0a0:	31 50 be ff 	add	#-66,	r1	;#0xffbe

  // Set SCACHE_FLAG to 1
  if (*(uint8_t *)SCACHE_FLAG == 0)
    a0a4:	c2 93 df ff 	tst.b	&0xffdf	
    a0a8:	02 20       	jnz	$+6      	;abs 0xa0ae
  {
    *(uint8_t *)SCACHE_FLAG = 1;
    a0aa:	d2 43 df ff 	mov.b	#1,	&0xffdf	;r3 As==01
  }

  // Check whether EP_START == B_EP_START, if not, copy B_EP_START to EP_START
  if (*(uint16_t *)EP_START != (*(uint16_t *)B_EP_START))
    a0ae:	1f 42 da ff 	mov	&0xffda,r15	
    a0b2:	1f 92 40 01 	cmp	&0x0140,r15	
    a0b6:	05 24       	jz	$+12     	;abs 0xa0c2
  {
    *(uint16_t *)EP_START = *(uint16_t *)B_EP_START;
    a0b8:	82 4f 40 01 	mov	r15,	&0x0140	
    *(uint16_t *)EP_END = *(uint16_t *)B_EP_END;
    a0bc:	92 42 dc ff 	mov	&0xffdc,&0x0142	
    a0c0:	42 01 
  }

  // Copy new IVT (from software at B_EP_START) to SCACHE_IVT and make sure Reset handler is 0xA000
  memcpy((uint8_t *)SCACHE_IVT, (uint8_t *)(*(uint16_t *)B_EP_END) + 2 - SIZE_IVT, SIZE_IVT);
    a0c2:	3d 40 20 00 	mov	#32,	r13	;#0x0020
    a0c6:	1e 42 dc ff 	mov	&0xffdc,r14	
    a0ca:	3e 50 e2 ff 	add	#-30,	r14	;#0xffe2
    a0ce:	3f 40 e0 ff 	mov	#-32,	r15	;#0xffe0
    a0d2:	b0 12 ae bf 	call	#0xbfae	

  // Compute response and store to SIG_RESP_ADDR
  uint8_t key[SIZE_KEY] = {0};
    a0d6:	3d 40 20 00 	mov	#32,	r13	;#0x0020
    a0da:	0e 43       	clr	r14		
    a0dc:	0f 41       	mov	r1,	r15	
    a0de:	b0 12 a8 c0 	call	#0xc0a8	
  memcpy(key, (uint8_t *)KEY_ADDR, SIZE_KEY);
    a0e2:	3d 40 20 00 	mov	#32,	r13	;#0x0020
    a0e6:	3e 40 00 6a 	mov	#27136,	r14	;#0x6a00
    a0ea:	0f 41       	mov	r1,	r15	
    a0ec:	b0 12 ae bf 	call	#0xbfae	
  uint8_t response_body[SIZE_VER_INFO + SIZE_NONCE] = {0};
    a0f0:	0b 41       	mov	r1,	r11	
    a0f2:	3b 50 20 00 	add	#32,	r11	;#0x0020
    a0f6:	3d 40 22 00 	mov	#34,	r13	;#0x0022
    a0fa:	0e 43       	clr	r14		
    a0fc:	0f 4b       	mov	r11,	r15	
    a0fe:	b0 12 a8 c0 	call	#0xc0a8	
  *(uint16_t *)response_body = *(uint16_t *)((uint8_t *)(*(uint16_t *)B_EP_START) + OFFSET_VER_INFO);
    a102:	3e 40 da ff 	mov	#-38,	r14	;#0xffda
    a106:	2f 4e       	mov	@r14,	r15	
    a108:	91 4f 02 00 	mov	2(r15),	32(r1)	;0x0002(r15), 0x0020(r1)
    a10c:	20 00 
  memcpy(response_body + SIZE_VER_INFO, (uint8_t *)(*(uint16_t *)B_EP_START) + OFFSET_NONCE, SIZE_NONCE);
    a10e:	3d 40 20 00 	mov	#32,	r13	;#0x0020
    a112:	2e 4e       	mov	@r14,	r14	
    a114:	2e 52       	add	#4,	r14	;r2 As==10
    a116:	0f 41       	mov	r1,	r15	
    a118:	3f 50 22 00 	add	#34,	r15	;#0x0022
    a11c:	b0 12 ae bf 	call	#0xbfae	
  hmac((uint8_t *)SIG_RESP_ADDR, (uint8_t *)key, (uint32_t)SIZE_KEY, response_body, (uint32_t)(SIZE_VER_INFO + SIZE_NONCE));
    a120:	03 12       	push	#0		;r3 As==00
    a122:	30 12 22 00 	push	#34		;#0x0022
    a126:	0b 12       	push	r11		
    a128:	3c 40 20 00 	mov	#32,	r12	;#0x0020
    a12c:	0d 43       	clr	r13		
    a12e:	0e 41       	mov	r1,	r14	
    a130:	3e 50 06 00 	add	#6,	r14	;#0x0006
    a134:	3f 40 d0 03 	mov	#976,	r15	;#0x03d0
    a138:	b0 12 54 bf 	call	#0xbf54	
    a13c:	31 50 06 00 	add	#6,	r1	;#0x0006

  // Set SCACHE_FLAG to 0
  *(uint8_t *)SCACHE_FLAG = 0;
    a140:	c2 43 df ff 	mov.b	#0,	&0xffdf	;r3 As==00

  CASU_jump_to_ER_routine();
    a144:	b0 12 70 a0 	call	#0xa070	
}
    a148:	31 50 42 00 	add	#66,	r1	;#0x0042
    a14c:	3b 41       	pop	r11		
    a14e:	30 41       	ret			

0000a150 <secure_memcmp>:
  __asm__ volatile("br      #__mac_leave"
                   "\n\t");
}

__attribute__((section(".do_mac.body"))) int secure_memcmp(const uint8_t *s1, const uint8_t *s2, int size)
{
    a150:	0b 12       	push	r11		
    a152:	0a 12       	push	r10		
    a154:	09 12       	push	r9		
    a156:	08 12       	push	r8		
  int res = 0;
  int first = 1;
  for (int i = 0; i < size; i++)
    a158:	1d 93       	cmp	#1,	r13	;r3 As==01
    a15a:	18 38       	jl	$+50     	;abs 0xa18c
    a15c:	0b 4f       	mov	r15,	r11	
    a15e:	0c 43       	clr	r12		
}

__attribute__((section(".do_mac.body"))) int secure_memcmp(const uint8_t *s1, const uint8_t *s2, int size)
{
  int res = 0;
  int first = 1;
    a160:	1a 43       	mov	#1,	r10	;r3 As==01
                   "\n\t");
}

__attribute__((section(".do_mac.body"))) int secure_memcmp(const uint8_t *s1, const uint8_t *s2, int size)
{
  int res = 0;
    a162:	0f 43       	clr	r15		
  int first = 1;
  for (int i = 0; i < size; i++)
  {
    if (first == 1 && s1[i] > s2[i])
    a164:	1a 93       	cmp	#1,	r10	;r3 As==01
    a166:	0c 20       	jnz	$+26     	;abs 0xa180
    a168:	ee 9b 00 00 	cmp.b	@r11,	0(r14)	;0x0000(r14)
    a16c:	04 28       	jnc	$+10     	;abs 0xa176
    {
      res = 1;
      first = 0;
    }
    else if (first == 1 && s1[i] < s2[i])
    a16e:	eb 9e 00 00 	cmp.b	@r14,	0(r11)	;0x0000(r11)
    a172:	04 28       	jnc	$+10     	;abs 0xa17c
    a174:	05 3c       	jmp	$+12     	;abs 0xa180
  for (int i = 0; i < size; i++)
  {
    if (first == 1 && s1[i] > s2[i])
    {
      res = 1;
      first = 0;
    a176:	0a 43       	clr	r10		
  int first = 1;
  for (int i = 0; i < size; i++)
  {
    if (first == 1 && s1[i] > s2[i])
    {
      res = 1;
    a178:	1f 43       	mov	#1,	r15	;r3 As==01
    a17a:	02 3c       	jmp	$+6      	;abs 0xa180
      first = 0;
    }
    else if (first == 1 && s1[i] < s2[i])
    {
      res = -1;
      first = 0;
    a17c:	0a 43       	clr	r10		
      res = 1;
      first = 0;
    }
    else if (first == 1 && s1[i] < s2[i])
    {
      res = -1;
    a17e:	3f 43       	mov	#-1,	r15	;r3 As==11

__attribute__((section(".do_mac.body"))) int secure_memcmp(const uint8_t *s1, const uint8_t *s2, int size)
{
  int res = 0;
  int first = 1;
  for (int i = 0; i < size; i++)
    a180:	1c 53       	inc	r12		
    a182:	1b 53       	inc	r11		
    a184:	1e 53       	inc	r14		
    a186:	0c 9d       	cmp	r13,	r12	
    a188:	ed 23       	jnz	$-36     	;abs 0xa164
    a18a:	01 3c       	jmp	$+4      	;abs 0xa18e
                   "\n\t");
}

__attribute__((section(".do_mac.body"))) int secure_memcmp(const uint8_t *s1, const uint8_t *s2, int size)
{
  int res = 0;
    a18c:	0f 43       	clr	r15		
      res = -1;
      first = 0;
    }
  }
  return res;
}
    a18e:	38 41       	pop	r8		
    a190:	39 41       	pop	r9		
    a192:	3a 41       	pop	r10		
    a194:	3b 41       	pop	r11		
    a196:	30 41       	ret			

0000a198 <CASU_update_authenticate>:
  }
  UART_STAT = UART_RX_PND;
}

__attribute__((section(".do_mac.body"))) void CASU_update_authenticate()
{
    a198:	31 50 c0 ff 	add	#-64,	r1	;#0xffc0
  uint8_t key[SIZE_KEY] = {0};
    a19c:	3d 40 20 00 	mov	#32,	r13	;#0x0020
    a1a0:	0e 43       	clr	r14		
    a1a2:	0f 41       	mov	r1,	r15	
    a1a4:	b0 12 a8 c0 	call	#0xc0a8	

  memcpy(key, (uint8_t *)KEY_ADDR, SIZE_KEY);
    a1a8:	3d 40 20 00 	mov	#32,	r13	;#0x0020
    a1ac:	3e 40 00 6a 	mov	#27136,	r14	;#0x6a00
    a1b0:	0f 41       	mov	r1,	r15	
    a1b2:	b0 12 ae bf 	call	#0xbfae	

  /* Work around for version number of existing software */
  // Check if the version number is greater than the previous one.
  if (*(uint16_t *)((uint8_t *)B_EP_START + OFFSET_VER_INFO) <= *(uint16_t *)((uint8_t *)EXISTING_SW_VERSION))
    a1b6:	92 92 dc ff 	cmp	&0xffdc,&0xffd8	
    a1ba:	d8 ff 
    a1bc:	02 28       	jnc	$+6      	;abs 0xa1c2
  {
    CASU_jump_to_ER_routine_init();
    a1be:	b0 12 46 a0 	call	#0xa046	
  }

  // Compute HMAC on the bEP.
  uint8_t signature[SIZE_SIGNATURE] = {0};
    a1c2:	3d 40 20 00 	mov	#32,	r13	;#0x0020
    a1c6:	0e 43       	clr	r14		
    a1c8:	0f 41       	mov	r1,	r15	
    a1ca:	3f 50 20 00 	add	#32,	r15	;#0x0020
    a1ce:	b0 12 a8 c0 	call	#0xc0a8	
  uint8_t *bEP_min = (uint8_t *)(*((uint16_t *)B_EP_START));
    a1d2:	1d 42 da ff 	mov	&0xffda,r13	
  uint16_t bEP_size = ((*(uint16_t *)B_EP_END) - (*(uint16_t *)B_EP_START)) + 2;
    a1d6:	1c 42 dc ff 	mov	&0xffdc,r12	
    a1da:	2c 53       	incd	r12		

  hmac((uint8_t *)signature, (uint8_t *)key, (uint32_t)SIZE_KEY, (uint8_t *)bEP_min, (uint32_t)bEP_size);
    a1dc:	0e 4c       	mov	r12,	r14	
    a1de:	0e 8d       	sub	r13,	r14	
    a1e0:	0f 43       	clr	r15		
    a1e2:	0f 12       	push	r15		
    a1e4:	0e 12       	push	r14		
    a1e6:	0d 12       	push	r13		
    a1e8:	3c 40 20 00 	mov	#32,	r12	;#0x0020
    a1ec:	0d 43       	clr	r13		
    a1ee:	0e 41       	mov	r1,	r14	
    a1f0:	3e 50 06 00 	add	#6,	r14	;#0x0006
    a1f4:	0f 41       	mov	r1,	r15	
    a1f6:	3f 50 26 00 	add	#38,	r15	;#0x0026
    a1fa:	b0 12 54 bf 	call	#0xbf54	
    a1fe:	31 50 06 00 	add	#6,	r1	;#0x0006

  // Check if signature == SIG_RESP_ADDR. If yes, jump to CASU_update_install()
  if (secure_memcmp(signature, (uint8_t *)SIG_RESP_ADDR, sizeof(signature)) == 0)
    a202:	3d 40 20 00 	mov	#32,	r13	;#0x0020
    a206:	3e 40 d0 03 	mov	#976,	r14	;#0x03d0
    a20a:	0f 41       	mov	r1,	r15	
    a20c:	3f 50 20 00 	add	#32,	r15	;#0x0020
    a210:	b0 12 50 a1 	call	#0xa150	
    a214:	0f 93       	tst	r15		
    a216:	02 20       	jnz	$+6      	;abs 0xa21c
  {
    CASU_update_install();
    a218:	b0 12 9e a0 	call	#0xa09e	
  }

  // Otherwise, jump to CASU_jump_to_ER_routine_init()
  CASU_jump_to_ER_routine_init();
    a21c:	b0 12 46 a0 	call	#0xa046	
}
    a220:	31 50 40 00 	add	#64,	r1	;#0x0040
    a224:	30 41       	ret			

0000a226 <uart>:
                   "\n\t");
}

#pragma vector = UART_RX_VECTOR
__interrupt __attribute__((section(".do_mac.body"))) void uart(void)
{
    a226:	0f 12       	push	r15		
    a228:	0e 12       	push	r14		
    a22a:	0d 12       	push	r13		
    a22c:	0c 12       	push	r12		
    a22e:	21 83       	decd	r1		
  uint8_t sendByte = ACK;
    a230:	f1 40 61 00 	mov.b	#97,	0(r1)	;#0x0061, 0x0000(r1)
    a234:	00 00 
  send_buf(&sendByte, sizeof(sendByte));
    a236:	1e 43       	mov	#1,	r14	;r3 As==01
    a238:	0f 41       	mov	r1,	r15	
    a23a:	b0 12 1a a3 	call	#0xa31a	

  read_byte();
    a23e:	b0 12 5e a3 	call	#0xa35e	
  P3OUT = ~P3OUT;
    a242:	3f 40 19 00 	mov	#25,	r15	;#0x0019
    a246:	6e 4f       	mov.b	@r15,	r14	
    a248:	7e e3       	xor.b	#-1,	r14	;r3 As==11
    a24a:	cf 4e 00 00 	mov.b	r14,	0(r15)	;0x0000(r15)

  __asm__ volatile("incd	r1"
    a24e:	21 53       	incd	r1		
                   "\n\t");
  __asm__ volatile("pop r12"
    a250:	3c 41       	pop	r12		
                   "\n\t");
  __asm__ volatile("pop r13"
    a252:	3d 41       	pop	r13		
                   "\n\t");
  __asm__ volatile("pop r14"
    a254:	3e 41       	pop	r14		
                   "\n\t");
  __asm__ volatile("pop r15"
    a256:	3f 41       	pop	r15		
                   "\n\t");
  __asm__ volatile("pop r2"
    a258:	32 41       	pop	r2		
                   "\n\t");
  __asm__ volatile("pop r5"
    a25a:	35 41       	pop	r5		
                   "\n\t");
  __asm__ volatile("br      #__mac_leave"
    a25c:	30 40 fe df 	br	#0xdffe	
                   "\n\t");
}
    a260:	21 53       	incd	r1		
    a262:	3c 41       	pop	r12		
    a264:	3d 41       	pop	r13		
    a266:	3e 41       	pop	r14		
    a268:	3f 41       	pop	r15		
    a26a:	00 13       	reti			

0000a26c <recv_buf>:
  tcb_entry();
}

/************ UART COMS ************/
__attribute__((section(".do_mac.lib"))) void recv_buf(uint8_t *rx_data, uint16_t size)
{
    a26c:	0b 12       	push	r11		
    a26e:	0a 12       	push	r10		
    a270:	09 12       	push	r9		
    a272:	09 4f       	mov	r15,	r9	
    a274:	0a 4e       	mov	r14,	r10	
  P3OUT ^= 0x40;
    a276:	3f 40 19 00 	mov	#25,	r15	;#0x0019
    a27a:	6e 4f       	mov.b	@r15,	r14	
    a27c:	7e e0 40 00 	xor.b	#64,	r14	;#0x0040
    a280:	cf 4e 00 00 	mov.b	r14,	0(r15)	;0x0000(r15)
  unsigned int i = 0, j;
  unsigned long time = 0;
  while (i < size && time != UART_TIMEOUT)
    a284:	0a 93       	tst	r10		
    a286:	28 20       	jnz	$+82     	;abs 0xa2d8
    a288:	35 3c       	jmp	$+108    	;abs 0xa2f4

#if IS_SIM == NOT_SIM
    // wait while rx buffer is empty         // implementation only
    while ((UART_STAT & UART_RX_PND) != UART_RX_PND && time != UART_TIMEOUT)
    {
      time++;
    a28a:	1e 53       	inc	r14		
    a28c:	0f 63       	adc	r15		
  while (i < size && time != UART_TIMEOUT)
  {

#if IS_SIM == NOT_SIM
    // wait while rx buffer is empty         // implementation only
    while ((UART_STAT & UART_RX_PND) != UART_RX_PND && time != UART_TIMEOUT)
    a28e:	5d 42 81 00 	mov.b	&0x0081,r13	
    a292:	3d f0 10 00 	and	#16,	r13	;#0x0010
    a296:	06 20       	jnz	$+14     	;abs 0xa2a4
    a298:	3e 90 fe 7f 	cmp	#32766,	r14	;#0x7ffe
    a29c:	f6 23       	jnz	$-18     	;abs 0xa28a
    a29e:	0f 93       	tst	r15		
    a2a0:	f4 23       	jnz	$-22     	;abs 0xa28a
    a2a2:	33 3c       	jmp	$+104    	;abs 0xa30a
    {
      time++;
    }
    UART_STAT |= UART_RX_PND;
    a2a4:	3d 40 81 00 	mov	#129,	r13	;#0x0081
    a2a8:	6b 4d       	mov.b	@r13,	r11	
    a2aa:	7b d0 10 00 	bis.b	#16,	r11	;#0x0010
    a2ae:	cd 4b 00 00 	mov.b	r11,	0(r13)	;0x0000(r13)
#endif

    if (time == UART_TIMEOUT)
    a2b2:	3e 90 fe 7f 	cmp	#32766,	r14	;#0x7ffe
    a2b6:	02 20       	jnz	$+6      	;abs 0xa2bc
    a2b8:	0f 93       	tst	r15		
    a2ba:	1c 24       	jz	$+58     	;abs 0xa2f4
    {
      break;
    }
    else
    {
      rx_data[i] = UART_RXD;
    a2bc:	5b 42 85 00 	mov.b	&0x0085,r11	
  // Call CASU:
  tcb_entry();
}

/************ UART COMS ************/
__attribute__((section(".do_mac.lib"))) void recv_buf(uint8_t *rx_data, uint16_t size)
    a2c0:	0d 49       	mov	r9,	r13	
    a2c2:	0d 5c       	add	r12,	r13	
    {
      break;
    }
    else
    {
      rx_data[i] = UART_RXD;
    a2c4:	cd 4b 00 00 	mov.b	r11,	0(r13)	;0x0000(r13)
    a2c8:	3d 40 64 00 	mov	#100,	r13	;#0x0064
    a2cc:	3d 53       	add	#-1,	r13	;r3 As==11

#if IS_SIM == NOT_SIM
      // implementation only
      for (j = 0; j < DELAY; j++)
    a2ce:	fe 23       	jnz	$-2      	;abs 0xa2cc
      {
      } // wait for buffer to clear before reading next char
#endif

      i++;
    a2d0:	1c 53       	inc	r12		
__attribute__((section(".do_mac.lib"))) void recv_buf(uint8_t *rx_data, uint16_t size)
{
  P3OUT ^= 0x40;
  unsigned int i = 0, j;
  unsigned long time = 0;
  while (i < size && time != UART_TIMEOUT)
    a2d2:	0c 9a       	cmp	r10,	r12	
    a2d4:	04 20       	jnz	$+10     	;abs 0xa2de
    a2d6:	0e 3c       	jmp	$+30     	;abs 0xa2f4

/************ UART COMS ************/
__attribute__((section(".do_mac.lib"))) void recv_buf(uint8_t *rx_data, uint16_t size)
{
  P3OUT ^= 0x40;
  unsigned int i = 0, j;
    a2d8:	0c 43       	clr	r12		
  unsigned long time = 0;
    a2da:	0e 43       	clr	r14		
    a2dc:	0f 43       	clr	r15		
  while (i < size && time != UART_TIMEOUT)
  {

#if IS_SIM == NOT_SIM
    // wait while rx buffer is empty         // implementation only
    while ((UART_STAT & UART_RX_PND) != UART_RX_PND && time != UART_TIMEOUT)
    a2de:	5d 42 81 00 	mov.b	&0x0081,r13	
    a2e2:	3d f0 10 00 	and	#16,	r13	;#0x0010
    a2e6:	de 23       	jnz	$-66     	;abs 0xa2a4
    a2e8:	3e 90 fe 7f 	cmp	#32766,	r14	;#0x7ffe
    a2ec:	ce 23       	jnz	$-98     	;abs 0xa28a
    a2ee:	0f 93       	tst	r15		
    a2f0:	cc 23       	jnz	$-102    	;abs 0xa28a
    a2f2:	0b 3c       	jmp	$+24     	;abs 0xa30a
#endif

      i++;
    }
  }
  P3OUT ^= 0x40;
    a2f4:	3f 40 19 00 	mov	#25,	r15	;#0x0019
    a2f8:	6e 4f       	mov.b	@r15,	r14	
    a2fa:	7e e0 40 00 	xor.b	#64,	r14	;#0x0040
    a2fe:	cf 4e 00 00 	mov.b	r14,	0(r15)	;0x0000(r15)
}
    a302:	39 41       	pop	r9		
    a304:	3a 41       	pop	r10		
    a306:	3b 41       	pop	r11		
    a308:	30 41       	ret			
    // wait while rx buffer is empty         // implementation only
    while ((UART_STAT & UART_RX_PND) != UART_RX_PND && time != UART_TIMEOUT)
    {
      time++;
    }
    UART_STAT |= UART_RX_PND;
    a30a:	3f 40 81 00 	mov	#129,	r15	;#0x0081
    a30e:	6e 4f       	mov.b	@r15,	r14	
    a310:	7e d0 10 00 	bis.b	#16,	r14	;#0x0010
    a314:	cf 4e 00 00 	mov.b	r14,	0(r15)	;0x0000(r15)
    a318:	ed 3f       	jmp	$-36     	;abs 0xa2f4

0000a31a <send_buf>:
  P3OUT ^= 0x40;
}

__attribute__((section(".do_mac.lib"))) void send_buf(uint8_t *tx_data, uint16_t size)
{
  P3OUT ^= 0x20;
    a31a:	3d 40 19 00 	mov	#25,	r13	;#0x0019
    a31e:	6c 4d       	mov.b	@r13,	r12	
    a320:	7c e0 20 00 	xor.b	#32,	r12	;#0x0020
    a324:	cd 4c 00 00 	mov.b	r12,	0(r13)	;0x0000(r13)
  unsigned int i, j;
  for (i = 0; i < size; i++)
    a328:	0e 93       	tst	r14		
    a32a:	11 24       	jz	$+36     	;abs 0xa34e
    a32c:	0c 43       	clr	r12		
  {
#if IS_SIM == NOT_SIM
    // delay until tx buffer is empty // implementation only
    while (UART_STAT & UART_TX_FULL)
    a32e:	5d 42 81 00 	mov.b	&0x0081,r13	
    a332:	3d f2       	and	#8,	r13	;r2 As==11
    a334:	fc 23       	jnz	$-6      	;abs 0xa32e
    }
  }
  P3OUT ^= 0x40;
}

__attribute__((section(".do_mac.lib"))) void send_buf(uint8_t *tx_data, uint16_t size)
    a336:	0d 4f       	mov	r15,	r13	
    a338:	0d 5c       	add	r12,	r13	
    // delay until tx buffer is empty // implementation only
    while (UART_STAT & UART_TX_FULL)
      ;
#endif

    UART_TXD = tx_data[i];
    a33a:	6d 4d       	mov.b	@r13,	r13	
    a33c:	c2 4d 84 00 	mov.b	r13,	&0x0084	
    a340:	3d 40 64 00 	mov	#100,	r13	;#0x0064
    a344:	3d 53       	add	#-1,	r13	;r3 As==11

#if IS_SIM == NOT_SIM
    // only implementation
    for (j = 0; j < DELAY; j++)
    a346:	fe 23       	jnz	$-2      	;abs 0xa344

__attribute__((section(".do_mac.lib"))) void send_buf(uint8_t *tx_data, uint16_t size)
{
  P3OUT ^= 0x20;
  unsigned int i, j;
  for (i = 0; i < size; i++)
    a348:	1c 53       	inc	r12		
    a34a:	0c 9e       	cmp	r14,	r12	
    a34c:	f0 23       	jnz	$-30     	;abs 0xa32e
    for (j = 0; j < DELAY; j++)
    {
    } // wait for buffer to clear before sending next char
#endif
  }
  P3OUT ^= 0x20;
    a34e:	3f 40 19 00 	mov	#25,	r15	;#0x0019
    a352:	6e 4f       	mov.b	@r15,	r14	
    a354:	7e e0 20 00 	xor.b	#32,	r14	;#0x0020
    a358:	cf 4e 00 00 	mov.b	r14,	0(r15)	;0x0000(r15)
}
    a35c:	30 41       	ret			

0000a35e <read_byte>:
  __asm__ volatile("br      #__mac_leave"
                   "\n\t");
}

__attribute__((section(".do_mac.lib"))) void read_byte()
{
    a35e:	0b 12       	push	r11		
    a360:	0a 12       	push	r10		
    a362:	09 12       	push	r9		
    a364:	08 12       	push	r8		
    a366:	07 12       	push	r7		
    a368:	04 12       	push	r4		
    a36a:	04 41       	mov	r1,	r4	
    a36c:	34 50 0c 00 	add	#12,	r4	;#0x000c
    a370:	31 50 94 fd 	add	#-620,	r1	;#0xfd94
  struct req_msg req_msg;
  uint8_t rxbyte = 0;
    a374:	c4 43 d9 fd 	mov.b	#0,	-551(r4);r3 As==00, 0xfdd9(r4)
  uint8_t key[SIZE_KEY] = {0};
    a378:	3d 40 20 00 	mov	#32,	r13	;#0x0020
    a37c:	0e 43       	clr	r14		
    a37e:	0f 44       	mov	r4,	r15	
    a380:	3f 50 da fd 	add	#-550,	r15	;#0xfdda
    a384:	b0 12 a8 c0 	call	#0xc0a8	
  while (rxbyte != END_BYTE)
  {
    recv_buf(&rxbyte, sizeof(rxbyte));
    a388:	1e 43       	mov	#1,	r14	;r3 As==01
    a38a:	0f 44       	mov	r4,	r15	
    a38c:	3f 50 d9 fd 	add	#-551,	r15	;#0xfdd9
    a390:	b0 12 6c a2 	call	#0xa26c	
    P3OUT = ~P3OUT;
    a394:	3f 40 19 00 	mov	#25,	r15	;#0x0019
    a398:	6e 4f       	mov.b	@r15,	r14	
    a39a:	7e e3       	xor.b	#-1,	r14	;r3 As==11
    a39c:	cf 4e 00 00 	mov.b	r14,	0(r15)	;0x0000(r15)

    if (rxbyte != END_BYTE)
    a3a0:	5e 44 d9 fd 	mov.b	-551(r4),r14	;0xfdd9(r4)
    a3a4:	7e 90 7d 00 	cmp.b	#125,	r14	;#0x007d
    a3a8:	08 24       	jz	$+18     	;abs 0xa3ba
    {
      rxdata[rx_end++] = rxbyte;
    a3aa:	5d 42 28 12 	mov.b	&0x1228,r13	
    a3ae:	4f 4d       	mov.b	r13,	r15	
    a3b0:	cf 4e 3c 12 	mov.b	r14,	4668(r15);0x123c(r15)
    a3b4:	5d 53       	inc.b	r13		
    a3b6:	c2 4d 28 12 	mov.b	r13,	&0x1228	
      if (rx_end == RING_BUF_SIZE)
      {
        rx_end = 0;
      }
    }
    send_buf(&rxbyte, sizeof(rxbyte));
    a3ba:	1e 43       	mov	#1,	r14	;r3 As==01
    a3bc:	0f 44       	mov	r4,	r15	
    a3be:	3f 50 d9 fd 	add	#-551,	r15	;#0xfdd9
    a3c2:	b0 12 1a a3 	call	#0xa31a	
__attribute__((section(".do_mac.lib"))) void read_byte()
{
  struct req_msg req_msg;
  uint8_t rxbyte = 0;
  uint8_t key[SIZE_KEY] = {0};
  while (rxbyte != END_BYTE)
    a3c6:	f4 90 7d 00 	cmp.b	#125,	-551(r4);#0x007d, 0xfdd9(r4)
    a3ca:	d9 fd 
    a3cc:	dd 23       	jnz	$-68     	;abs 0xa388
        rx_end = 0;
      }
    }
    send_buf(&rxbyte, sizeof(rxbyte));
  }
  switch (rxdata[rx_start])
    a3ce:	5e 42 2a 12 	mov.b	&0x122a,r14	
    a3d2:	4f 4e       	mov.b	r14,	r15	
    a3d4:	5d 4f 3c 12 	mov.b	4668(r15),r13	;0x123c(r15)
    a3d8:	5d 93       	cmp.b	#1,	r13	;r3 As==01
    a3da:	02 20       	jnz	$+6      	;abs 0xa3e0
    a3dc:	30 40 28 a9 	br	#0xa928	
    a3e0:	06 28       	jnc	$+14     	;abs 0xa3ee
    a3e2:	6d 92       	cmp.b	#4,	r13	;r2 As==10
    a3e4:	02 28       	jnc	$+6      	;abs 0xa3ea
    a3e6:	30 40 8e af 	br	#0xaf8e	
    a3ea:	30 40 94 ae 	br	#0xae94	
  {
  case MSG_TYPE_REQ:
    if (rx_start > rx_end)
    a3ee:	59 42 28 12 	mov.b	&0x1228,r9	
    a3f2:	49 9e       	cmp.b	r14,	r9	
    a3f4:	27 2c       	jc	$+80     	;abs 0xa444
    {
      my_memcpy((uint8_t *)&req_msg, &rxdata[rx_start], RING_BUF_SIZE - rx_start);
    a3f6:	3b 40 00 01 	mov	#256,	r11	;#0x0100
    a3fa:	0b 8f       	sub	r15,	r11	
    a3fc:	4e 4e       	mov.b	r14,	r14	
    a3fe:	0a 4e       	mov	r14,	r10	
    a400:	3a 50 3c 12 	add	#4668,	r10	;#0x123c
    uint8_t *data,
    uint32_t datalen);

__attribute__((section(".do_mac.lib"))) inline void my_memcpy(uint8_t *dst, uint8_t *src, int size)
{
  for (int i = 0; i < size; i++)
    a404:	1b 93       	cmp	#1,	r11	;r3 As==01
    a406:	0c 38       	jl	$+26     	;abs 0xa420
    a408:	0f 43       	clr	r15		
                   "\n\t");
  __asm__ volatile("br      #__mac_leave"
                   "\n\t");
}

__attribute__((section(".do_mac.lib"))) void read_byte()
    a40a:	3c 40 88 fd 	mov	#-632,	r12	;#0xfd88
    a40e:	0c 54       	add	r4,	r12	
    a410:	0c 5f       	add	r15,	r12	
    a412:	0d 4a       	mov	r10,	r13	
    a414:	0d 5f       	add	r15,	r13	
    uint32_t datalen);

__attribute__((section(".do_mac.lib"))) inline void my_memcpy(uint8_t *dst, uint8_t *src, int size)
{
  for (int i = 0; i < size; i++)
    dst[i] = src[i];
    a416:	ec 4d 00 00 	mov.b	@r13,	0(r12)	;0x0000(r12)
    uint8_t *data,
    uint32_t datalen);

__attribute__((section(".do_mac.lib"))) inline void my_memcpy(uint8_t *dst, uint8_t *src, int size)
{
  for (int i = 0; i < size; i++)
    a41a:	1f 53       	inc	r15		
    a41c:	0f 9b       	cmp	r11,	r15	
    a41e:	f5 23       	jnz	$-20     	;abs 0xa40a
  {
  case MSG_TYPE_REQ:
    if (rx_start > rx_end)
    {
      my_memcpy((uint8_t *)&req_msg, &rxdata[rx_start], RING_BUF_SIZE - rx_start);
      my_memcpy(((uint8_t *)&req_msg + RING_BUF_SIZE - rx_start), &rxdata[0], rx_end + 1);
    a420:	3c 40 88 fd 	mov	#-632,	r12	;#0xfd88
    a424:	0c 54       	add	r4,	r12	
    a426:	0c 8e       	sub	r14,	r12	
    a428:	3c 50 00 01 	add	#256,	r12	;#0x0100
                   "\n\t");
  __asm__ volatile("br      #__mac_leave"
                   "\n\t");
}

__attribute__((section(".do_mac.lib"))) void read_byte()
    a42c:	4d 49       	mov.b	r9,	r13	
    a42e:	1d 53       	inc	r13		
    uint8_t *data,
    uint32_t datalen);

__attribute__((section(".do_mac.lib"))) inline void my_memcpy(uint8_t *dst, uint8_t *src, int size)
{
  for (int i = 0; i < size; i++)
    a430:	0f 43       	clr	r15		
                   "\n\t");
  __asm__ volatile("br      #__mac_leave"
                   "\n\t");
}

__attribute__((section(".do_mac.lib"))) void read_byte()
    a432:	0e 4c       	mov	r12,	r14	
    a434:	0e 5f       	add	r15,	r14	
    uint32_t datalen);

__attribute__((section(".do_mac.lib"))) inline void my_memcpy(uint8_t *dst, uint8_t *src, int size)
{
  for (int i = 0; i < size; i++)
    dst[i] = src[i];
    a436:	de 4f 3c 12 	mov.b	4668(r15),0(r14)	;0x123c(r15), 0x0000(r14)
    a43a:	00 00 
    uint8_t *data,
    uint32_t datalen);

__attribute__((section(".do_mac.lib"))) inline void my_memcpy(uint8_t *dst, uint8_t *src, int size)
{
  for (int i = 0; i < size; i++)
    a43c:	1f 53       	inc	r15		
    a43e:	0f 9d       	cmp	r13,	r15	
    a440:	f8 23       	jnz	$-14     	;abs 0xa432
    a442:	16 3c       	jmp	$+46     	;abs 0xa470
      my_memcpy((uint8_t *)&req_msg, &rxdata[rx_start], RING_BUF_SIZE - rx_start);
      my_memcpy(((uint8_t *)&req_msg + RING_BUF_SIZE - rx_start), &rxdata[0], rx_end + 1);
    }
    else
    {
      my_memcpy((uint8_t *)&req_msg, &rxdata[rx_start], rx_end - rx_start + 1);
    a444:	4b 49       	mov.b	r9,	r11	
    a446:	0b 8f       	sub	r15,	r11	
    a448:	4e 4e       	mov.b	r14,	r14	
    a44a:	3e 50 3c 12 	add	#4668,	r14	;#0x123c
    a44e:	0f 4b       	mov	r11,	r15	
    a450:	1f 53       	inc	r15		
    uint8_t *data,
    uint32_t datalen);

__attribute__((section(".do_mac.lib"))) inline void my_memcpy(uint8_t *dst, uint8_t *src, int size)
{
  for (int i = 0; i < size; i++)
    a452:	1f 93       	cmp	#1,	r15	;r3 As==01
    a454:	0d 38       	jl	$+28     	;abs 0xa470
                   "\n\t");
  __asm__ volatile("br      #__mac_leave"
                   "\n\t");
}

__attribute__((section(".do_mac.lib"))) void read_byte()
    a456:	0b 4f       	mov	r15,	r11	
    uint8_t *data,
    uint32_t datalen);

__attribute__((section(".do_mac.lib"))) inline void my_memcpy(uint8_t *dst, uint8_t *src, int size)
{
  for (int i = 0; i < size; i++)
    a458:	0f 43       	clr	r15		
                   "\n\t");
  __asm__ volatile("br      #__mac_leave"
                   "\n\t");
}

__attribute__((section(".do_mac.lib"))) void read_byte()
    a45a:	3c 40 88 fd 	mov	#-632,	r12	;#0xfd88
    a45e:	0c 54       	add	r4,	r12	
    a460:	0c 5f       	add	r15,	r12	
    a462:	0d 4e       	mov	r14,	r13	
    a464:	0d 5f       	add	r15,	r13	
    uint32_t datalen);

__attribute__((section(".do_mac.lib"))) inline void my_memcpy(uint8_t *dst, uint8_t *src, int size)
{
  for (int i = 0; i < size; i++)
    dst[i] = src[i];
    a466:	ec 4d 00 00 	mov.b	@r13,	0(r12)	;0x0000(r12)
    uint8_t *data,
    uint32_t datalen);

__attribute__((section(".do_mac.lib"))) inline void my_memcpy(uint8_t *dst, uint8_t *src, int size)
{
  for (int i = 0; i < size; i++)
    a46a:	1f 53       	inc	r15		
    a46c:	0f 9b       	cmp	r11,	r15	
    a46e:	f5 23       	jnz	$-20     	;abs 0xa45a
    }
    else
    {
      my_memcpy((uint8_t *)&req_msg, &rxdata[rx_start], rx_end - rx_start + 1);
    }
    send_buf((uint8_t *)&req_msg, sizeof(req_msg));
    a470:	3e 40 51 00 	mov	#81,	r14	;#0x0051
    a474:	0f 44       	mov	r4,	r15	
    a476:	3f 50 88 fd 	add	#-632,	r15	;#0xfd88
    a47a:	b0 12 1a a3 	call	#0xa31a	
    memset(rxdata, 0, sizeof(rxdata));
    a47e:	3d 40 00 01 	mov	#256,	r13	;#0x0100
    a482:	0e 43       	clr	r14		
    a484:	3f 40 3c 12 	mov	#4668,	r15	;#0x123c
    a488:	b0 12 a8 c0 	call	#0xc0a8	
    rx_start = 0;
    a48c:	c2 43 2a 12 	mov.b	#0,	&0x122a	;r3 As==00
    rx_end = 0;
    a490:	c2 43 28 12 	mov.b	#0,	&0x1228	;r3 As==00
  uint32_t hash_idx; 0079   \x4F\x00\x00\x00
  uint8_t hash[SIZE_HASH]; 32 bytes BBBBBBBBBBBBBBBBBBBBBBBBBBBBBBBB
  uint32_t cur_time; 0009     \x09\x00\x00\x00
  };*/

    uint8_t hash_res[SIZE_HASH] = {0};
    a494:	3d 40 20 00 	mov	#32,	r13	;#0x0020
    a498:	0e 43       	clr	r14		
    a49a:	0f 44       	mov	r4,	r15	
    a49c:	3f 50 5a fe 	add	#-422,	r15	;#0xfe5a
    a4a0:	b0 12 a8 c0 	call	#0xc0a8	
    if (cur_seq >= req_msg.seq)
    a4a4:	1e 42 38 12 	mov	&0x1238,r14	
    a4a8:	1f 42 3a 12 	mov	&0x123a,r15	
    a4ac:	5c 44 ad fd 	mov.b	-595(r4),r12	;0xfdad(r4)
    a4b0:	5d 44 ae fd 	mov.b	-594(r4),r13	;0xfdae(r4)
    a4b4:	8d 10       	swpb	r13		
    a4b6:	0b 4d       	mov	r13,	r11	
    a4b8:	0b dc       	bis	r12,	r11	
    a4ba:	5c 44 af fd 	mov.b	-593(r4),r12	;0xfdaf(r4)
    a4be:	5d 44 b0 fd 	mov.b	-592(r4),r13	;0xfdb0(r4)
    a4c2:	8d 10       	swpb	r13		
    a4c4:	0d dc       	bis	r12,	r13	
    a4c6:	0f 9d       	cmp	r13,	r15	
    a4c8:	08 28       	jnc	$+18     	;abs 0xa4da
    a4ca:	0d 9f       	cmp	r15,	r13	
    a4cc:	02 2c       	jc	$+6      	;abs 0xa4d2
    a4ce:	30 40 8e af 	br	#0xaf8e	
    a4d2:	0e 9b       	cmp	r11,	r14	
    a4d4:	02 28       	jnc	$+6      	;abs 0xa4da
    a4d6:	30 40 8e af 	br	#0xaf8e	
    {
      break;
    }
    if (cur_hash_idx > req_msg.hash_idx)
    a4da:	1e 42 04 02 	mov	&0x0204,r14	
    a4de:	1f 42 06 02 	mov	&0x0206,r15	
    a4e2:	5c 44 b1 fd 	mov.b	-591(r4),r12	;0xfdb1(r4)
    a4e6:	5d 44 b2 fd 	mov.b	-590(r4),r13	;0xfdb2(r4)
    a4ea:	8d 10       	swpb	r13		
    a4ec:	0b 4d       	mov	r13,	r11	
    a4ee:	0b dc       	bis	r12,	r11	
    a4f0:	5c 44 b3 fd 	mov.b	-589(r4),r12	;0xfdb3(r4)
    a4f4:	5d 44 b4 fd 	mov.b	-588(r4),r13	;0xfdb4(r4)
    a4f8:	8d 10       	swpb	r13		
    a4fa:	0d dc       	bis	r12,	r13	
    a4fc:	0d 9f       	cmp	r15,	r13	
    a4fe:	04 28       	jnc	$+10     	;abs 0xa508
    a500:	0f 9d       	cmp	r13,	r15	
    a502:	68 28       	jnc	$+210    	;abs 0xa5d4
    a504:	0b 9e       	cmp	r14,	r11	
    a506:	66 2c       	jc	$+206    	;abs 0xa5d4
    {
      uint8_t input_hash[SIZE_HASH];
      memcpy(input_hash, req_msg.hash, SIZE_HASH);
    a508:	3d 40 20 00 	mov	#32,	r13	;#0x0020
    a50c:	0e 44       	mov	r4,	r14	
    a50e:	3e 50 b5 fd 	add	#-587,	r14	;#0xfdb5
    a512:	0f 44       	mov	r4,	r15	
    a514:	3f 50 3a fe 	add	#-454,	r15	;#0xfe3a
    a518:	b0 12 ae bf 	call	#0xbfae	
      for (int i = 0; i < cur_hash_idx - req_msg.hash_idx; i++)
    a51c:	1e 42 04 02 	mov	&0x0204,r14	
    a520:	1f 42 06 02 	mov	&0x0206,r15	
    a524:	5c 44 b1 fd 	mov.b	-591(r4),r12	;0xfdb1(r4)
    a528:	5d 44 b2 fd 	mov.b	-590(r4),r13	;0xfdb2(r4)
    a52c:	8d 10       	swpb	r13		
    a52e:	0b 4d       	mov	r13,	r11	
    a530:	0b dc       	bis	r12,	r11	
    a532:	5c 44 b3 fd 	mov.b	-589(r4),r12	;0xfdb3(r4)
    a536:	5d 44 b4 fd 	mov.b	-588(r4),r13	;0xfdb4(r4)
    a53a:	8d 10       	swpb	r13		
    a53c:	0d dc       	bis	r12,	r13	
    a53e:	0e 9b       	cmp	r11,	r14	
    a540:	02 20       	jnz	$+6      	;abs 0xa546
    a542:	0f 9d       	cmp	r13,	r15	
    a544:	3a 24       	jz	$+118    	;abs 0xa5ba
    a546:	0b 43       	clr	r11		
      {
        hash((uint8_t *)hash_res, (uint8_t *)input_hash, (uint32_t)SIZE_HASH);
    a548:	3c 40 20 00 	mov	#32,	r12	;#0x0020
    a54c:	0d 43       	clr	r13		
    a54e:	0e 44       	mov	r4,	r14	
    a550:	3e 50 3a fe 	add	#-454,	r14	;#0xfe3a
    a554:	0f 44       	mov	r4,	r15	
    a556:	3f 50 5a fe 	add	#-422,	r15	;#0xfe5a
    a55a:	b0 12 3e bf 	call	#0xbf3e	
        memcpy(input_hash, hash_res, SIZE_HASH);
    a55e:	3d 40 20 00 	mov	#32,	r13	;#0x0020
    a562:	0e 44       	mov	r4,	r14	
    a564:	3e 50 5a fe 	add	#-422,	r14	;#0xfe5a
    a568:	0f 44       	mov	r4,	r15	
    a56a:	3f 50 3a fe 	add	#-454,	r15	;#0xfe3a
    a56e:	b0 12 ae bf 	call	#0xbfae	
    }
    if (cur_hash_idx > req_msg.hash_idx)
    {
      uint8_t input_hash[SIZE_HASH];
      memcpy(input_hash, req_msg.hash, SIZE_HASH);
      for (int i = 0; i < cur_hash_idx - req_msg.hash_idx; i++)
    a572:	1b 53       	inc	r11		
    a574:	1c 42 04 02 	mov	&0x0204,r12	
    a578:	1d 42 06 02 	mov	&0x0206,r13	
    a57c:	0f 4b       	mov	r11,	r15	
    a57e:	8f 10       	swpb	r15		
    a580:	8f 11       	sxt	r15		
    a582:	8f 10       	swpb	r15		
    a584:	8f 11       	sxt	r15		
    a586:	08 4f       	mov	r15,	r8	
    a588:	59 44 b1 fd 	mov.b	-591(r4),r9	;0xfdb1(r4)
    a58c:	5a 44 b2 fd 	mov.b	-590(r4),r10	;0xfdb2(r4)
    a590:	8a 10       	swpb	r10		
    a592:	0e 4a       	mov	r10,	r14	
    a594:	0e d9       	bis	r9,	r14	
    a596:	59 44 b3 fd 	mov.b	-589(r4),r9	;0xfdb3(r4)
    a59a:	5a 44 b4 fd 	mov.b	-588(r4),r10	;0xfdb4(r4)
    a59e:	8a 10       	swpb	r10		
    a5a0:	0f 4a       	mov	r10,	r15	
    a5a2:	0f d9       	bis	r9,	r15	
    a5a4:	09 4c       	mov	r12,	r9	
    a5a6:	0a 4d       	mov	r13,	r10	
    a5a8:	09 8e       	sub	r14,	r9	
    a5aa:	0a 7f       	subc	r15,	r10	
    a5ac:	0e 49       	mov	r9,	r14	
    a5ae:	0f 4a       	mov	r10,	r15	
    a5b0:	08 9f       	cmp	r15,	r8	
    a5b2:	ca 2b       	jnc	$-106    	;abs 0xa548
    a5b4:	02 20       	jnz	$+6      	;abs 0xa5ba
    a5b6:	0b 99       	cmp	r9,	r11	
    a5b8:	c7 2b       	jnc	$-112    	;abs 0xa548
      {
        hash((uint8_t *)hash_res, (uint8_t *)input_hash, (uint32_t)SIZE_HASH);
        memcpy(input_hash, hash_res, SIZE_HASH);
      }
      if (secure_memcmp(hash_res, cur_hash, SIZE_HASH) != 0)
    a5ba:	3d 40 20 00 	mov	#32,	r13	;#0x0020
    a5be:	3e 40 08 02 	mov	#520,	r14	;#0x0208
    a5c2:	0f 44       	mov	r4,	r15	
    a5c4:	3f 50 5a fe 	add	#-422,	r15	;#0xfe5a
    a5c8:	b0 12 50 a1 	call	#0xa150	
    a5cc:	0f 93       	tst	r15		
    a5ce:	02 24       	jz	$+6      	;abs 0xa5d4
    a5d0:	30 40 8e af 	br	#0xaf8e	
      {
        break;
      }
    }
    memset(hash_res, 0, sizeof(hash_res));
    a5d4:	3d 40 20 00 	mov	#32,	r13	;#0x0020
    a5d8:	0e 43       	clr	r14		
    a5da:	0f 44       	mov	r4,	r15	
    a5dc:	3f 50 5a fe 	add	#-422,	r15	;#0xfe5a
    a5e0:	b0 12 a8 c0 	call	#0xc0a8	

    struct auth_req_hash auth_req_hash;
    auth_req_hash.msg_type = req_msg.msg_type;
    a5e4:	d4 44 88 fd 	mov.b	-632(r4),-255(r4);0xfd88(r4), 0xff01(r4)
    a5e8:	01 ff 
    memcpy(auth_req_hash.hash, req_msg.hash, SIZE_HASH);
    a5ea:	3d 40 20 00 	mov	#32,	r13	;#0x0020
    a5ee:	0e 44       	mov	r4,	r14	
    a5f0:	3e 50 b5 fd 	add	#-587,	r14	;#0xfdb5
    a5f4:	0f 44       	mov	r4,	r15	
    a5f6:	3f 50 02 ff 	add	#-254,	r15	;#0xff02
    a5fa:	b0 12 ae bf 	call	#0xbfae	
    auth_req_hash.seq = req_msg.seq;
    a5fe:	5d 44 ad fd 	mov.b	-595(r4),r13	;0xfdad(r4)
    a602:	5f 44 ae fd 	mov.b	-594(r4),r15	;0xfdae(r4)
    a606:	8f 10       	swpb	r15		
    a608:	0d df       	bis	r15,	r13	
    a60a:	5e 44 af fd 	mov.b	-593(r4),r14	;0xfdaf(r4)
    a60e:	5f 44 b0 fd 	mov.b	-592(r4),r15	;0xfdb0(r4)
    a612:	8f 10       	swpb	r15		
    a614:	0e df       	bis	r15,	r14	
    a616:	c4 4d 22 ff 	mov.b	r13,	-222(r4);0xff22(r4)
    a61a:	8d 10       	swpb	r13		
    a61c:	c4 4d 23 ff 	mov.b	r13,	-221(r4);0xff23(r4)
    a620:	c4 4e 24 ff 	mov.b	r14,	-220(r4);0xff24(r4)
    a624:	8e 10       	swpb	r14		
    a626:	c4 4e 25 ff 	mov.b	r14,	-219(r4);0xff25(r4)
    auth_req_hash.hash_idx = req_msg.hash_idx;
    a62a:	5d 44 b1 fd 	mov.b	-591(r4),r13	;0xfdb1(r4)
    a62e:	5f 44 b2 fd 	mov.b	-590(r4),r15	;0xfdb2(r4)
    a632:	8f 10       	swpb	r15		
    a634:	0d df       	bis	r15,	r13	
    a636:	5e 44 b3 fd 	mov.b	-589(r4),r14	;0xfdb3(r4)
    a63a:	5f 44 b4 fd 	mov.b	-588(r4),r15	;0xfdb4(r4)
    a63e:	8f 10       	swpb	r15		
    a640:	0e df       	bis	r15,	r14	
    a642:	c4 4d 26 ff 	mov.b	r13,	-218(r4);0xff26(r4)
    a646:	8d 10       	swpb	r13		
    a648:	c4 4d 27 ff 	mov.b	r13,	-217(r4);0xff27(r4)
    a64c:	c4 4e 28 ff 	mov.b	r14,	-216(r4);0xff28(r4)
    a650:	8e 10       	swpb	r14		
    a652:	c4 4e 29 ff 	mov.b	r14,	-215(r4);0xff29(r4)
    auth_req_hash.cur_time = req_msg.cur_time;
    a656:	5d 44 d5 fd 	mov.b	-555(r4),r13	;0xfdd5(r4)
    a65a:	5f 44 d6 fd 	mov.b	-554(r4),r15	;0xfdd6(r4)
    a65e:	8f 10       	swpb	r15		
    a660:	0d df       	bis	r15,	r13	
    a662:	5e 44 d7 fd 	mov.b	-553(r4),r14	;0xfdd7(r4)
    a666:	5f 44 d8 fd 	mov.b	-552(r4),r15	;0xfdd8(r4)
    a66a:	8f 10       	swpb	r15		
    a66c:	0e df       	bis	r15,	r14	
    a66e:	c4 4d 2a ff 	mov.b	r13,	-214(r4);0xff2a(r4)
    a672:	8d 10       	swpb	r13		
    a674:	c4 4d 2b ff 	mov.b	r13,	-213(r4);0xff2b(r4)
    a678:	c4 4e 2c ff 	mov.b	r14,	-212(r4);0xff2c(r4)
    a67c:	8e 10       	swpb	r14		
    a67e:	c4 4e 2d ff 	mov.b	r14,	-211(r4);0xff2d(r4)

    // hash_res is the heartbeat.
    hash((uint8_t *)hash_res, (uint8_t *)&auth_req_hash, (uint32_t)sizeof(auth_req_hash));
    a682:	3c 40 2d 00 	mov	#45,	r12	;#0x002d
    a686:	0d 43       	clr	r13		
    a688:	0e 44       	mov	r4,	r14	
    a68a:	3e 50 01 ff 	add	#-255,	r14	;#0xff01
    a68e:	0f 44       	mov	r4,	r15	
    a690:	3f 50 5a fe 	add	#-422,	r15	;#0xfe5a
    a694:	b0 12 3e bf 	call	#0xbf3e	

    if (secure_memcmp(hash_res, req_msg.auth_req, SIZE_HASH))
    a698:	3d 40 20 00 	mov	#32,	r13	;#0x0020
    a69c:	0e 44       	mov	r4,	r14	
    a69e:	3e 50 8d fd 	add	#-627,	r14	;#0xfd8d
    a6a2:	0f 44       	mov	r4,	r15	
    a6a4:	3f 50 5a fe 	add	#-422,	r15	;#0xfe5a
    a6a8:	b0 12 50 a1 	call	#0xa150	
    a6ac:	0f 93       	tst	r15		
    a6ae:	02 24       	jz	$+6      	;abs 0xa6b4
    a6b0:	30 40 8e af 	br	#0xaf8e	

    {
      break;
    }

    cur_seq = req_msg.seq;
    a6b4:	5c 44 ad fd 	mov.b	-595(r4),r12	;0xfdad(r4)
    a6b8:	5d 44 ae fd 	mov.b	-594(r4),r13	;0xfdae(r4)
    a6bc:	8d 10       	swpb	r13		
    a6be:	0e 4d       	mov	r13,	r14	
    a6c0:	0e dc       	bis	r12,	r14	
    a6c2:	5c 44 af fd 	mov.b	-593(r4),r12	;0xfdaf(r4)
    a6c6:	5d 44 b0 fd 	mov.b	-592(r4),r13	;0xfdb0(r4)
    a6ca:	8d 10       	swpb	r13		
    a6cc:	0f 4d       	mov	r13,	r15	
    a6ce:	0f dc       	bis	r12,	r15	
    a6d0:	82 4e 38 12 	mov	r14,	&0x1238	
    a6d4:	82 4f 3a 12 	mov	r15,	&0x123a	
    parent = req_msg.snd_id;
    a6d8:	5c 44 89 fd 	mov.b	-631(r4),r12	;0xfd89(r4)
    a6dc:	5d 44 8a fd 	mov.b	-630(r4),r13	;0xfd8a(r4)
    a6e0:	8d 10       	swpb	r13		
    a6e2:	0e 4d       	mov	r13,	r14	
    a6e4:	0e dc       	bis	r12,	r14	
    a6e6:	5c 44 8b fd 	mov.b	-629(r4),r12	;0xfd8b(r4)
    a6ea:	5d 44 8c fd 	mov.b	-628(r4),r13	;0xfd8c(r4)
    a6ee:	8d 10       	swpb	r13		
    a6f0:	0f 4d       	mov	r13,	r15	
    a6f2:	0f dc       	bis	r12,	r15	
    a6f4:	82 4e 2c 12 	mov	r14,	&0x122c	
    a6f8:	82 4f 2e 12 	mov	r15,	&0x122e	
    cur_hash_idx = req_msg.hash_idx;
    a6fc:	5c 44 b1 fd 	mov.b	-591(r4),r12	;0xfdb1(r4)
    a700:	5d 44 b2 fd 	mov.b	-590(r4),r13	;0xfdb2(r4)
    a704:	8d 10       	swpb	r13		
    a706:	0e 4d       	mov	r13,	r14	
    a708:	0e dc       	bis	r12,	r14	
    a70a:	5c 44 b3 fd 	mov.b	-589(r4),r12	;0xfdb3(r4)
    a70e:	5d 44 b4 fd 	mov.b	-588(r4),r13	;0xfdb4(r4)
    a712:	8d 10       	swpb	r13		
    a714:	0f 4d       	mov	r13,	r15	
    a716:	0f dc       	bis	r12,	r15	
    a718:	82 4e 04 02 	mov	r14,	&0x0204	
    a71c:	82 4f 06 02 	mov	r15,	&0x0206	
    memcpy(cur_hash, req_msg.hash, SIZE_HASH);
    a720:	3d 40 20 00 	mov	#32,	r13	;#0x0020
    a724:	0e 44       	mov	r4,	r14	
    a726:	3e 50 b5 fd 	add	#-587,	r14	;#0xfdb5
    a72a:	3f 40 08 02 	mov	#520,	r15	;#0x0208
    a72e:	b0 12 ae bf 	call	#0xbfae	
    req_msg.snd_id = dev_id;
    a732:	1e 42 00 02 	mov	&0x0200,r14	
    a736:	1f 42 02 02 	mov	&0x0202,r15	
    a73a:	c4 4e 89 fd 	mov.b	r14,	-631(r4);0xfd89(r4)
    a73e:	8e 10       	swpb	r14		
    a740:	c4 4e 8a fd 	mov.b	r14,	-630(r4);0xfd8a(r4)
    a744:	c4 4f 8b fd 	mov.b	r15,	-629(r4);0xfd8b(r4)
    a748:	8f 10       	swpb	r15		
    a74a:	c4 4f 8c fd 	mov.b	r15,	-628(r4);0xfd8c(r4)
    req_msg.msg_type = MSG_TYPE_REP;
    a74e:	e4 43 88 fd 	mov.b	#2,	-632(r4);r3 As==10, 0xfd88(r4)
    uint32_t delay_cycles;
    uint32_t req_time;
    uint16_t taccr0_high, taccr0_low;


    req_time = req_msg.cur_time;
    a752:	5e 44 d5 fd 	mov.b	-555(r4),r14	;0xfdd5(r4)
    a756:	5f 44 d6 fd 	mov.b	-554(r4),r15	;0xfdd6(r4)
    a75a:	8f 10       	swpb	r15		
    a75c:	0c 4f       	mov	r15,	r12	
    a75e:	0c de       	bis	r14,	r12	
    a760:	5e 44 d7 fd 	mov.b	-553(r4),r14	;0xfdd7(r4)
    a764:	5f 44 d8 fd 	mov.b	-552(r4),r15	;0xfdd8(r4)
    a768:	8f 10       	swpb	r15		
    a76a:	0d 4f       	mov	r15,	r13	
    a76c:	0d de       	bis	r14,	r13	
    TACTL = TASSEL_2 + MC_1 + ID_3;
    a76e:	b2 40 d0 02 	mov	#720,	&0x0160	;#0x02d0
    a772:	60 01 
    delay_cycles = (uint32_t)req_time * 137500UL;
    a774:	0e 4c       	mov	r12,	r14	
    a776:	0f 4d       	mov	r13,	r15	
    a778:	0e 5e       	rla	r14		
    a77a:	0f 6f       	rlc	r15		
    a77c:	0e 5c       	add	r12,	r14	
    a77e:	0f 6d       	addc	r13,	r15	
    a780:	0e 5e       	rla	r14		
    a782:	0f 6f       	rlc	r15		
    a784:	0e 5e       	rla	r14		
    a786:	0f 6f       	rlc	r15		
    a788:	0e 5e       	rla	r14		
    a78a:	0f 6f       	rlc	r15		
    a78c:	0e 5e       	rla	r14		
    a78e:	0f 6f       	rlc	r15		
    a790:	0e 5e       	rla	r14		
    a792:	0f 6f       	rlc	r15		
    a794:	0e 5e       	rla	r14		
    a796:	0f 6f       	rlc	r15		
    a798:	0e 8c       	sub	r12,	r14	
    a79a:	0f 7d       	subc	r13,	r15	
    a79c:	0a 4e       	mov	r14,	r10	
    a79e:	0b 4f       	mov	r15,	r11	
    a7a0:	0a 5a       	rla	r10		
    a7a2:	0b 6b       	rlc	r11		
    a7a4:	0a 5a       	rla	r10		
    a7a6:	0b 6b       	rlc	r11		
    a7a8:	0a 5a       	rla	r10		
    a7aa:	0b 6b       	rlc	r11		
    a7ac:	0a 5e       	add	r14,	r10	
    a7ae:	0b 6f       	addc	r15,	r11	
    a7b0:	0a 5a       	rla	r10		
    a7b2:	0b 6b       	rlc	r11		
    a7b4:	0a 5a       	rla	r10		
    a7b6:	0b 6b       	rlc	r11		
    a7b8:	0a 8c       	sub	r12,	r10	
    a7ba:	0b 7d       	subc	r13,	r11	
    a7bc:	0e 4a       	mov	r10,	r14	
    a7be:	0f 4b       	mov	r11,	r15	
    a7c0:	0e 5e       	rla	r14		
    a7c2:	0f 6f       	rlc	r15		
    a7c4:	0e 5e       	rla	r14		
    a7c6:	0f 6f       	rlc	r15		
    a7c8:	0e 5a       	add	r10,	r14	
    a7ca:	0f 6b       	addc	r11,	r15	
    a7cc:	0e 5e       	rla	r14		
    a7ce:	0f 6f       	rlc	r15		
    a7d0:	0e 5e       	rla	r14		
    a7d2:	0f 6f       	rlc	r15		
    // Check for timer overflow
    taccr0_high = (uint16_t)(delay_cycles >> 16);
    taccr0_low = (uint16_t)(delay_cycles & 0xFFFF);

    if (taccr0_high > 0) {
    a7d4:	0f 93       	tst	r15		
    a7d6:	28 20       	jnz	$+82     	;abs 0xa828
    a7d8:	31 3c       	jmp	$+100    	;abs 0xa83c
        while (req_time > 0) {
            if (req_time >= 65536) {
    a7da:	1d 93       	cmp	#1,	r13	;r3 As==01
    a7dc:	05 28       	jnc	$+12     	;abs 0xa7e8
                TACCR0 = 0xFFFF;
    a7de:	b2 43 72 01 	mov	#-1,	&0x0172	;r3 As==11
                req_time -= 65536;
    a7e2:	0c 53       	add	#0,	r12	;r3 As==00
    a7e4:	3d 63       	addc	#-1,	r13	;r3 As==11
    a7e6:	17 3c       	jmp	$+48     	;abs 0xa816
            } else {
                TACCR0 = (uint16_t)((uint32_t)req_time * 137500UL);
    a7e8:	0e 4c       	mov	r12,	r14	
    a7ea:	0c 5c       	rla	r12		
    a7ec:	0c 5c       	rla	r12		
    a7ee:	0c 5c       	rla	r12		
    a7f0:	0f 4c       	mov	r12,	r15	
    a7f2:	0f 5f       	rla	r15		
    a7f4:	0f 5f       	rla	r15		
    a7f6:	0c 5f       	add	r15,	r12	
    a7f8:	0f 4c       	mov	r12,	r15	
    a7fa:	0f 5f       	rla	r15		
    a7fc:	0f 5f       	rla	r15		
    a7fe:	0f 5c       	add	r12,	r15	
    a800:	0f 5e       	add	r14,	r15	
    a802:	0f 5f       	rla	r15		
    a804:	0f 5f       	rla	r15		
    a806:	0f 5f       	rla	r15		
    a808:	0f 8e       	sub	r14,	r15	
    a80a:	0f 5f       	rla	r15		
    a80c:	0f 5f       	rla	r15		
    a80e:	82 4f 72 01 	mov	r15,	&0x0172	
                req_time = 0;
    a812:	0c 43       	clr	r12		
    a814:	0d 43       	clr	r13		
            }
            TAR = 0x00;
    a816:	82 43 70 01 	mov	#0,	&0x0170	;r3 As==00
            while ((TACCR0 - TAR) != 0) {
    a81a:	1e 42 72 01 	mov	&0x0172,r14	
    a81e:	1f 42 70 01 	mov	&0x0170,r15	
    a822:	0e 9f       	cmp	r15,	r14	
    a824:	fa 23       	jnz	$-10     	;abs 0xa81a
    a826:	05 3c       	jmp	$+12     	;abs 0xa832
    // Check for timer overflow
    taccr0_high = (uint16_t)(delay_cycles >> 16);
    taccr0_low = (uint16_t)(delay_cycles & 0xFFFF);

    if (taccr0_high > 0) {
        while (req_time > 0) {
    a828:	0c 93       	tst	r12		
    a82a:	d7 23       	jnz	$-80     	;abs 0xa7da
    a82c:	0d 93       	tst	r13		
    a82e:	d5 23       	jnz	$-84     	;abs 0xa7da
    a830:	0f 3c       	jmp	$+32     	;abs 0xa850
    a832:	0c 93       	tst	r12		
    a834:	d2 23       	jnz	$-90     	;abs 0xa7da
    a836:	0d 93       	tst	r13		
    a838:	d0 23       	jnz	$-94     	;abs 0xa7da
    a83a:	0a 3c       	jmp	$+22     	;abs 0xa850
            while ((TACCR0 - TAR) != 0) {
              // send_buf(&sendF, sizeof(sendF));
            }
        }
    } else {
        TACCR0 = taccr0_low;
    a83c:	82 4e 72 01 	mov	r14,	&0x0172	
        TAR = 0x00;
    a840:	82 43 70 01 	mov	#0,	&0x0170	;r3 As==00
        while ((TACCR0 - TAR) != 0) {
    a844:	1e 42 72 01 	mov	&0x0172,r14	
    a848:	1f 42 70 01 	mov	&0x0170,r15	
    a84c:	0e 9f       	cmp	r15,	r14	
    a84e:	fa 23       	jnz	$-10     	;abs 0xa844
           // send_buf(&sendF, sizeof(sendF));
        }
    }

    memset(key, 0, SIZE_KEY);
    a850:	3d 40 20 00 	mov	#32,	r13	;#0x0020
    a854:	0e 43       	clr	r14		
    a856:	0f 44       	mov	r4,	r15	
    a858:	3f 50 da fd 	add	#-550,	r15	;#0xfdda
    a85c:	b0 12 a8 c0 	call	#0xc0a8	
    memcpy(key, (uint8_t *)KEY_ADDR, SIZE_KEY);
    a860:	3d 40 20 00 	mov	#32,	r13	;#0x0020
    a864:	3e 40 00 6a 	mov	#27136,	r14	;#0x6a00
    a868:	0f 44       	mov	r4,	r15	
    a86a:	3f 50 da fd 	add	#-550,	r15	;#0xfdda
    a86e:	b0 12 ae bf 	call	#0xbfae	
    uint8_t auth_rep[SIZE_SIGNATURE] = {0};
    a872:	3d 40 20 00 	mov	#32,	r13	;#0x0020
    a876:	0e 43       	clr	r14		
    a878:	0f 44       	mov	r4,	r15	
    a87a:	3f 50 1a fe 	add	#-486,	r15	;#0xfe1a
    a87e:	b0 12 a8 c0 	call	#0xc0a8	

    hmac((uint8_t *)auth_rep, (uint8_t *)key, (uint32_t)SIZE_KEY, (uint8_t *)&req_msg, (uint32_t)(sizeof(req_msg)));
    a882:	03 12       	push	#0		;r3 As==00
    a884:	30 12 51 00 	push	#81		;#0x0051
    a888:	3a 40 88 fd 	mov	#-632,	r10	;#0xfd88
    a88c:	0a 54       	add	r4,	r10	
    a88e:	0a 12       	push	r10		
    a890:	3c 40 20 00 	mov	#32,	r12	;#0x0020
    a894:	0d 43       	clr	r13		
    a896:	0e 44       	mov	r4,	r14	
    a898:	3e 50 da fd 	add	#-550,	r14	;#0xfdda
    a89c:	0f 44       	mov	r4,	r15	
    a89e:	3f 50 1a fe 	add	#-486,	r15	;#0xfe1a
    a8a2:	b0 12 54 bf 	call	#0xbf54	
    a8a6:	31 50 06 00 	add	#6,	r1	;#0x0006

    // create att_rep
    struct att_rep att_rep;
    att_rep.msg_type = MSG_TYPE_REP;
    a8aa:	e4 43 d4 fe 	mov.b	#2,	-300(r4);r3 As==10, 0xfed4(r4)
    att_rep.dev_id = dev_id;
    a8ae:	1e 42 00 02 	mov	&0x0200,r14	
    a8b2:	1f 42 02 02 	mov	&0x0202,r15	
    a8b6:	c4 4e d5 fe 	mov.b	r14,	-299(r4);0xfed5(r4)
    a8ba:	8e 10       	swpb	r14		
    a8bc:	c4 4e d6 fe 	mov.b	r14,	-298(r4);0xfed6(r4)
    a8c0:	c4 4f d7 fe 	mov.b	r15,	-297(r4);0xfed7(r4)
    a8c4:	8f 10       	swpb	r15		
    a8c6:	c4 4f d8 fe 	mov.b	r15,	-296(r4);0xfed8(r4)
    att_rep.par = parent;
    a8ca:	1e 42 2c 12 	mov	&0x122c,r14	
    a8ce:	1f 42 2e 12 	mov	&0x122e,r15	
    a8d2:	c4 4e d9 fe 	mov.b	r14,	-295(r4);0xfed9(r4)
    a8d6:	8e 10       	swpb	r14		
    a8d8:	c4 4e da fe 	mov.b	r14,	-294(r4);0xfeda(r4)
    a8dc:	c4 4f db fe 	mov.b	r15,	-293(r4);0xfedb(r4)
    a8e0:	8f 10       	swpb	r15		
    a8e2:	c4 4f dc fe 	mov.b	r15,	-292(r4);0xfedc(r4)
    att_rep.seq = cur_seq;
    a8e6:	1e 42 38 12 	mov	&0x1238,r14	
    a8ea:	1f 42 3a 12 	mov	&0x123a,r15	
    a8ee:	c4 4e dd fe 	mov.b	r14,	-291(r4);0xfedd(r4)
    a8f2:	8e 10       	swpb	r14		
    a8f4:	c4 4e de fe 	mov.b	r14,	-290(r4);0xfede(r4)
    a8f8:	c4 4f df fe 	mov.b	r15,	-289(r4);0xfedf(r4)
    a8fc:	8f 10       	swpb	r15		
    a8fe:	c4 4f e0 fe 	mov.b	r15,	-288(r4);0xfee0(r4)
    memcpy(att_rep.auth_rep, auth_rep, SIZE_HASH);
    a902:	3d 40 20 00 	mov	#32,	r13	;#0x0020
    a906:	0e 44       	mov	r4,	r14	
    a908:	3e 50 1a fe 	add	#-486,	r14	;#0xfe1a
    a90c:	0f 44       	mov	r4,	r15	
    a90e:	3f 50 e1 fe 	add	#-287,	r15	;#0xfee1
    a912:	b0 12 ae bf 	call	#0xbfae	
    send_buf(&att_rep, sizeof(att_rep));
    a916:	3e 40 2d 00 	mov	#45,	r14	;#0x002d
    a91a:	0f 44       	mov	r4,	r15	
    a91c:	3f 50 d4 fe 	add	#-300,	r15	;#0xfed4
    a920:	b0 12 1a a3 	call	#0xa31a	
    break;
    a924:	30 40 8e af 	br	#0xaf8e	

  case MSG_TYPE_REF:;
    struct ref_msg ref_msg;
    if (rx_start > rx_end)
    a928:	59 42 28 12 	mov.b	&0x1228,r9	
    a92c:	49 9e       	cmp.b	r14,	r9	
    a92e:	27 2c       	jc	$+80     	;abs 0xa97e
    {
      my_memcpy((uint8_t *)&ref_msg, &rxdata[rx_start], RING_BUF_SIZE - rx_start);
    a930:	3b 40 00 01 	mov	#256,	r11	;#0x0100
    a934:	0b 8f       	sub	r15,	r11	
    a936:	4e 4e       	mov.b	r14,	r14	
    a938:	0a 4e       	mov	r14,	r10	
    a93a:	3a 50 3c 12 	add	#4668,	r10	;#0x123c
    uint8_t *data,
    uint32_t datalen);

__attribute__((section(".do_mac.lib"))) inline void my_memcpy(uint8_t *dst, uint8_t *src, int size)
{
  for (int i = 0; i < size; i++)
    a93e:	1b 93       	cmp	#1,	r11	;r3 As==01
    a940:	0c 38       	jl	$+26     	;abs 0xa95a
    a942:	0f 43       	clr	r15		
                   "\n\t");
  __asm__ volatile("br      #__mac_leave"
                   "\n\t");
}

__attribute__((section(".do_mac.lib"))) void read_byte()
    a944:	3d 40 7f ff 	mov	#-129,	r13	;#0xff7f
    a948:	0d 54       	add	r4,	r13	
    a94a:	0d 5f       	add	r15,	r13	
    a94c:	0c 4a       	mov	r10,	r12	
    a94e:	0c 5f       	add	r15,	r12	
    uint32_t datalen);

__attribute__((section(".do_mac.lib"))) inline void my_memcpy(uint8_t *dst, uint8_t *src, int size)
{
  for (int i = 0; i < size; i++)
    dst[i] = src[i];
    a950:	ed 4c 00 00 	mov.b	@r12,	0(r13)	;0x0000(r13)
    uint8_t *data,
    uint32_t datalen);

__attribute__((section(".do_mac.lib"))) inline void my_memcpy(uint8_t *dst, uint8_t *src, int size)
{
  for (int i = 0; i < size; i++)
    a954:	1f 53       	inc	r15		
    a956:	0f 9b       	cmp	r11,	r15	
    a958:	f5 23       	jnz	$-20     	;abs 0xa944
  case MSG_TYPE_REF:;
    struct ref_msg ref_msg;
    if (rx_start > rx_end)
    {
      my_memcpy((uint8_t *)&ref_msg, &rxdata[rx_start], RING_BUF_SIZE - rx_start);
      my_memcpy(((uint8_t *)&ref_msg + RING_BUF_SIZE - rx_start), &rxdata[0], rx_end + 1);
    a95a:	3c 40 88 fd 	mov	#-632,	r12	;#0xfd88
    a95e:	0c 54       	add	r4,	r12	
    a960:	0c 8e       	sub	r14,	r12	
    a962:	3c 50 f7 02 	add	#759,	r12	;#0x02f7
                   "\n\t");
  __asm__ volatile("br      #__mac_leave"
                   "\n\t");
}

__attribute__((section(".do_mac.lib"))) void read_byte()
    a966:	4d 49       	mov.b	r9,	r13	
    a968:	1d 53       	inc	r13		
    uint8_t *data,
    uint32_t datalen);

__attribute__((section(".do_mac.lib"))) inline void my_memcpy(uint8_t *dst, uint8_t *src, int size)
{
  for (int i = 0; i < size; i++)
    a96a:	0f 43       	clr	r15		
                   "\n\t");
  __asm__ volatile("br      #__mac_leave"
                   "\n\t");
}

__attribute__((section(".do_mac.lib"))) void read_byte()
    a96c:	0e 4c       	mov	r12,	r14	
    a96e:	0e 5f       	add	r15,	r14	
    uint32_t datalen);

__attribute__((section(".do_mac.lib"))) inline void my_memcpy(uint8_t *dst, uint8_t *src, int size)
{
  for (int i = 0; i < size; i++)
    dst[i] = src[i];
    a970:	de 4f 3c 12 	mov.b	4668(r15),0(r14)	;0x123c(r15), 0x0000(r14)
    a974:	00 00 
    uint8_t *data,
    uint32_t datalen);

__attribute__((section(".do_mac.lib"))) inline void my_memcpy(uint8_t *dst, uint8_t *src, int size)
{
  for (int i = 0; i < size; i++)
    a976:	1f 53       	inc	r15		
    a978:	0f 9d       	cmp	r13,	r15	
    a97a:	f8 23       	jnz	$-14     	;abs 0xa96c
    a97c:	16 3c       	jmp	$+46     	;abs 0xa9aa
      my_memcpy((uint8_t *)&ref_msg, &rxdata[rx_start], RING_BUF_SIZE - rx_start);
      my_memcpy(((uint8_t *)&ref_msg + RING_BUF_SIZE - rx_start), &rxdata[0], rx_end + 1);
    }
    else
    {
      my_memcpy((uint8_t *)&ref_msg, &rxdata[rx_start], rx_end - rx_start + 1);
    a97e:	4b 49       	mov.b	r9,	r11	
    a980:	0b 8f       	sub	r15,	r11	
    a982:	4e 4e       	mov.b	r14,	r14	
    a984:	3e 50 3c 12 	add	#4668,	r14	;#0x123c
    a988:	0f 4b       	mov	r11,	r15	
    a98a:	1f 53       	inc	r15		
    uint8_t *data,
    uint32_t datalen);

__attribute__((section(".do_mac.lib"))) inline void my_memcpy(uint8_t *dst, uint8_t *src, int size)
{
  for (int i = 0; i < size; i++)
    a98c:	1f 93       	cmp	#1,	r15	;r3 As==01
    a98e:	0d 38       	jl	$+28     	;abs 0xa9aa
                   "\n\t");
  __asm__ volatile("br      #__mac_leave"
                   "\n\t");
}

__attribute__((section(".do_mac.lib"))) void read_byte()
    a990:	0b 4f       	mov	r15,	r11	
    uint8_t *data,
    uint32_t datalen);

__attribute__((section(".do_mac.lib"))) inline void my_memcpy(uint8_t *dst, uint8_t *src, int size)
{
  for (int i = 0; i < size; i++)
    a992:	0f 43       	clr	r15		
                   "\n\t");
  __asm__ volatile("br      #__mac_leave"
                   "\n\t");
}

__attribute__((section(".do_mac.lib"))) void read_byte()
    a994:	3d 40 7f ff 	mov	#-129,	r13	;#0xff7f
    a998:	0d 54       	add	r4,	r13	
    a99a:	0d 5f       	add	r15,	r13	
    a99c:	0c 4e       	mov	r14,	r12	
    a99e:	0c 5f       	add	r15,	r12	
    uint32_t datalen);

__attribute__((section(".do_mac.lib"))) inline void my_memcpy(uint8_t *dst, uint8_t *src, int size)
{
  for (int i = 0; i < size; i++)
    dst[i] = src[i];
    a9a0:	ed 4c 00 00 	mov.b	@r12,	0(r13)	;0x0000(r13)
    uint8_t *data,
    uint32_t datalen);

__attribute__((section(".do_mac.lib"))) inline void my_memcpy(uint8_t *dst, uint8_t *src, int size)
{
  for (int i = 0; i < size; i++)
    a9a4:	1f 53       	inc	r15		
    a9a6:	0f 9b       	cmp	r11,	r15	
    a9a8:	f5 23       	jnz	$-20     	;abs 0xa994
    }
    else
    {
      my_memcpy((uint8_t *)&ref_msg, &rxdata[rx_start], rx_end - rx_start + 1);
    }
    send_buf((uint8_t *)&ref_msg, sizeof(ref_msg));
    a9aa:	3e 40 75 00 	mov	#117,	r14	;#0x0075
    a9ae:	0f 44       	mov	r4,	r15	
    a9b0:	3f 50 7f ff 	add	#-129,	r15	;#0xff7f
    a9b4:	b0 12 1a a3 	call	#0xa31a	
    memset(rxdata, 0, sizeof(rxdata));
    a9b8:	3d 40 00 01 	mov	#256,	r13	;#0x0100
    a9bc:	0e 43       	clr	r14		
    a9be:	3f 40 3c 12 	mov	#4668,	r15	;#0x123c
    a9c2:	b0 12 a8 c0 	call	#0xc0a8	
    rx_start = 0;
    a9c6:	c2 43 2a 12 	mov.b	#0,	&0x122a	;r3 As==00
    rx_end = 0;
    a9ca:	c2 43 28 12 	mov.b	#0,	&0x1228	;r3 As==00
    if (cur_seq >= ref_msg.seq)
    a9ce:	1e 42 38 12 	mov	&0x1238,r14	
    a9d2:	1f 42 3a 12 	mov	&0x123a,r15	
    a9d6:	5c 44 a4 ff 	mov.b	-92(r4),r12	;0xffa4(r4)
    a9da:	5d 44 a5 ff 	mov.b	-91(r4),r13	;0xffa5(r4)
    a9de:	8d 10       	swpb	r13		
    a9e0:	0b 4d       	mov	r13,	r11	
    a9e2:	0b dc       	bis	r12,	r11	
    a9e4:	5c 44 a6 ff 	mov.b	-90(r4),r12	;0xffa6(r4)
    a9e8:	5d 44 a7 ff 	mov.b	-89(r4),r13	;0xffa7(r4)
    a9ec:	8d 10       	swpb	r13		
    a9ee:	0d dc       	bis	r12,	r13	
    a9f0:	0f 9d       	cmp	r13,	r15	
    a9f2:	08 28       	jnc	$+18     	;abs 0xaa04
    a9f4:	0d 9f       	cmp	r15,	r13	
    a9f6:	02 2c       	jc	$+6      	;abs 0xa9fc
    a9f8:	30 40 8e af 	br	#0xaf8e	
    a9fc:	0e 9b       	cmp	r11,	r14	
    a9fe:	02 28       	jnc	$+6      	;abs 0xaa04
    aa00:	30 40 8e af 	br	#0xaf8e	
    {
      break;
    }
    if (cur_hash_idx > ref_msg.hash_idx)
    aa04:	1e 42 04 02 	mov	&0x0204,r14	
    aa08:	1f 42 06 02 	mov	&0x0206,r15	
    aa0c:	5c 44 a8 ff 	mov.b	-88(r4),r12	;0xffa8(r4)
    aa10:	5d 44 a9 ff 	mov.b	-87(r4),r13	;0xffa9(r4)
    aa14:	8d 10       	swpb	r13		
    aa16:	0b 4d       	mov	r13,	r11	
    aa18:	0b dc       	bis	r12,	r11	
    aa1a:	5c 44 aa ff 	mov.b	-86(r4),r12	;0xffaa(r4)
    aa1e:	5d 44 ab ff 	mov.b	-85(r4),r13	;0xffab(r4)
    aa22:	8d 10       	swpb	r13		
    aa24:	0d dc       	bis	r12,	r13	
    aa26:	0d 9f       	cmp	r15,	r13	
    aa28:	04 28       	jnc	$+10     	;abs 0xaa32
    aa2a:	0f 9d       	cmp	r13,	r15	
    aa2c:	68 28       	jnc	$+210    	;abs 0xaafe
    aa2e:	0b 9e       	cmp	r14,	r11	
    aa30:	66 2c       	jc	$+206    	;abs 0xaafe
    {
      uint8_t input_hash[SIZE_HASH];
      memcpy(input_hash, ref_msg.hash, SIZE_HASH);
    aa32:	3d 40 20 00 	mov	#32,	r13	;#0x0020
    aa36:	0e 44       	mov	r4,	r14	
    aa38:	3e 50 ac ff 	add	#-84,	r14	;#0xffac
    aa3c:	0f 44       	mov	r4,	r15	
    aa3e:	3f 50 3a fe 	add	#-454,	r15	;#0xfe3a
    aa42:	b0 12 ae bf 	call	#0xbfae	
      for (int i = 0; i < cur_hash_idx - ref_msg.hash_idx; i++)
    aa46:	1e 42 04 02 	mov	&0x0204,r14	
    aa4a:	1f 42 06 02 	mov	&0x0206,r15	
    aa4e:	5c 44 a8 ff 	mov.b	-88(r4),r12	;0xffa8(r4)
    aa52:	5d 44 a9 ff 	mov.b	-87(r4),r13	;0xffa9(r4)
    aa56:	8d 10       	swpb	r13		
    aa58:	0b 4d       	mov	r13,	r11	
    aa5a:	0b dc       	bis	r12,	r11	
    aa5c:	5c 44 aa ff 	mov.b	-86(r4),r12	;0xffaa(r4)
    aa60:	5d 44 ab ff 	mov.b	-85(r4),r13	;0xffab(r4)
    aa64:	8d 10       	swpb	r13		
    aa66:	0d dc       	bis	r12,	r13	
    aa68:	0b 9e       	cmp	r14,	r11	
    aa6a:	02 20       	jnz	$+6      	;abs 0xaa70
    aa6c:	0d 9f       	cmp	r15,	r13	
    aa6e:	3a 24       	jz	$+118    	;abs 0xaae4
    aa70:	0b 43       	clr	r11		
      {
        hash((uint8_t *)hash_res, (uint8_t *)input_hash, (uint32_t)SIZE_HASH);
    aa72:	3c 40 20 00 	mov	#32,	r12	;#0x0020
    aa76:	0d 43       	clr	r13		
    aa78:	0e 44       	mov	r4,	r14	
    aa7a:	3e 50 3a fe 	add	#-454,	r14	;#0xfe3a
    aa7e:	0f 44       	mov	r4,	r15	
    aa80:	3f 50 5a fe 	add	#-422,	r15	;#0xfe5a
    aa84:	b0 12 3e bf 	call	#0xbf3e	
        memcpy(input_hash, hash_res, SIZE_HASH);
    aa88:	3d 40 20 00 	mov	#32,	r13	;#0x0020
    aa8c:	0e 44       	mov	r4,	r14	
    aa8e:	3e 50 5a fe 	add	#-422,	r14	;#0xfe5a
    aa92:	0f 44       	mov	r4,	r15	
    aa94:	3f 50 3a fe 	add	#-454,	r15	;#0xfe3a
    aa98:	b0 12 ae bf 	call	#0xbfae	
    }
    if (cur_hash_idx > ref_msg.hash_idx)
    {
      uint8_t input_hash[SIZE_HASH];
      memcpy(input_hash, ref_msg.hash, SIZE_HASH);
      for (int i = 0; i < cur_hash_idx - ref_msg.hash_idx; i++)
    aa9c:	1b 53       	inc	r11		
    aa9e:	1c 42 04 02 	mov	&0x0204,r12	
    aaa2:	1d 42 06 02 	mov	&0x0206,r13	
    aaa6:	0f 4b       	mov	r11,	r15	
    aaa8:	8f 10       	swpb	r15		
    aaaa:	8f 11       	sxt	r15		
    aaac:	8f 10       	swpb	r15		
    aaae:	8f 11       	sxt	r15		
    aab0:	08 4f       	mov	r15,	r8	
    aab2:	59 44 a8 ff 	mov.b	-88(r4),r9	;0xffa8(r4)
    aab6:	5a 44 a9 ff 	mov.b	-87(r4),r10	;0xffa9(r4)
    aaba:	8a 10       	swpb	r10		
    aabc:	0e 4a       	mov	r10,	r14	
    aabe:	0e d9       	bis	r9,	r14	
    aac0:	59 44 aa ff 	mov.b	-86(r4),r9	;0xffaa(r4)
    aac4:	5a 44 ab ff 	mov.b	-85(r4),r10	;0xffab(r4)
    aac8:	8a 10       	swpb	r10		
    aaca:	0f 4a       	mov	r10,	r15	
    aacc:	0f d9       	bis	r9,	r15	
    aace:	09 4c       	mov	r12,	r9	
    aad0:	0a 4d       	mov	r13,	r10	
    aad2:	09 8e       	sub	r14,	r9	
    aad4:	0a 7f       	subc	r15,	r10	
    aad6:	0e 49       	mov	r9,	r14	
    aad8:	0f 4a       	mov	r10,	r15	
    aada:	08 9f       	cmp	r15,	r8	
    aadc:	ca 2b       	jnc	$-106    	;abs 0xaa72
    aade:	02 20       	jnz	$+6      	;abs 0xaae4
    aae0:	0b 99       	cmp	r9,	r11	
    aae2:	c7 2b       	jnc	$-112    	;abs 0xaa72
      {
        hash((uint8_t *)hash_res, (uint8_t *)input_hash, (uint32_t)SIZE_HASH);
        memcpy(input_hash, hash_res, SIZE_HASH);
      }
      if (secure_memcmp(hash_res, cur_hash, SIZE_HASH) != 0)
    aae4:	3d 40 20 00 	mov	#32,	r13	;#0x0020
    aae8:	3e 40 08 02 	mov	#520,	r14	;#0x0208
    aaec:	0f 44       	mov	r4,	r15	
    aaee:	3f 50 5a fe 	add	#-422,	r15	;#0xfe5a
    aaf2:	b0 12 50 a1 	call	#0xa150	
    aaf6:	0f 93       	tst	r15		
    aaf8:	02 24       	jz	$+6      	;abs 0xaafe
    aafa:	30 40 8e af 	br	#0xaf8e	
      {
        break;
      }
    }
    memset(hash_res, 0, sizeof(hash_res));
    aafe:	3d 40 20 00 	mov	#32,	r13	;#0x0020
    ab02:	0e 43       	clr	r14		
    ab04:	0f 44       	mov	r4,	r15	
    ab06:	3f 50 5a fe 	add	#-422,	r15	;#0xfe5a
    ab0a:	b0 12 a8 c0 	call	#0xc0a8	
    struct auth_ref_hash auth_ref_hash;
    auth_ref_hash.msg_type = ref_msg.msg_type;
    ab0e:	d4 44 7f ff 	mov.b	-129(r4),-210(r4);0xff7f(r4), 0xff2e(r4)
    ab12:	2e ff 
    memcpy(auth_ref_hash.hash, ref_msg.hash, SIZE_HASH);
    ab14:	3d 40 20 00 	mov	#32,	r13	;#0x0020
    ab18:	0e 44       	mov	r4,	r14	
    ab1a:	3e 50 ac ff 	add	#-84,	r14	;#0xffac
    ab1e:	0f 44       	mov	r4,	r15	
    ab20:	3f 50 2f ff 	add	#-209,	r15	;#0xff2f
    ab24:	b0 12 ae bf 	call	#0xbfae	
    auth_ref_hash.seq = ref_msg.seq;
    ab28:	5d 44 a4 ff 	mov.b	-92(r4),r13	;0xffa4(r4)
    ab2c:	5f 44 a5 ff 	mov.b	-91(r4),r15	;0xffa5(r4)
    ab30:	8f 10       	swpb	r15		
    ab32:	0d df       	bis	r15,	r13	
    ab34:	5e 44 a6 ff 	mov.b	-90(r4),r14	;0xffa6(r4)
    ab38:	5f 44 a7 ff 	mov.b	-89(r4),r15	;0xffa7(r4)
    ab3c:	8f 10       	swpb	r15		
    ab3e:	0e df       	bis	r15,	r14	
    ab40:	c4 4d 4f ff 	mov.b	r13,	-177(r4);0xff4f(r4)
    ab44:	8d 10       	swpb	r13		
    ab46:	c4 4d 50 ff 	mov.b	r13,	-176(r4);0xff50(r4)
    ab4a:	c4 4e 51 ff 	mov.b	r14,	-175(r4);0xff51(r4)
    ab4e:	8e 10       	swpb	r14		
    ab50:	c4 4e 52 ff 	mov.b	r14,	-174(r4);0xff52(r4)
    auth_ref_hash.hash_idx = ref_msg.hash_idx;
    ab54:	5d 44 a8 ff 	mov.b	-88(r4),r13	;0xffa8(r4)
    ab58:	5f 44 a9 ff 	mov.b	-87(r4),r15	;0xffa9(r4)
    ab5c:	8f 10       	swpb	r15		
    ab5e:	0d df       	bis	r15,	r13	
    ab60:	5e 44 aa ff 	mov.b	-86(r4),r14	;0xffaa(r4)
    ab64:	5f 44 ab ff 	mov.b	-85(r4),r15	;0xffab(r4)
    ab68:	8f 10       	swpb	r15		
    ab6a:	0e df       	bis	r15,	r14	
    ab6c:	c4 4d 53 ff 	mov.b	r13,	-173(r4);0xff53(r4)
    ab70:	8d 10       	swpb	r13		
    ab72:	c4 4d 54 ff 	mov.b	r13,	-172(r4);0xff54(r4)
    ab76:	c4 4e 55 ff 	mov.b	r14,	-171(r4);0xff55(r4)
    ab7a:	8e 10       	swpb	r14		
    ab7c:	c4 4e 56 ff 	mov.b	r14,	-170(r4);0xff56(r4)
    auth_ref_hash.cur_time = ref_msg.cur_time;
    ab80:	5d 44 f0 ff 	mov.b	-16(r4),r13	;0xfff0(r4)
    ab84:	5f 44 f1 ff 	mov.b	-15(r4),r15	;0xfff1(r4)
    ab88:	8f 10       	swpb	r15		
    ab8a:	0d df       	bis	r15,	r13	
    ab8c:	5e 44 f2 ff 	mov.b	-14(r4),r14	;0xfff2(r4)
    ab90:	5f 44 f3 ff 	mov.b	-13(r4),r15	;0xfff3(r4)
    ab94:	8f 10       	swpb	r15		
    ab96:	0e df       	bis	r15,	r14	
    ab98:	c4 4d 7b ff 	mov.b	r13,	-133(r4);0xff7b(r4)
    ab9c:	8d 10       	swpb	r13		
    ab9e:	c4 4d 7c ff 	mov.b	r13,	-132(r4);0xff7c(r4)
    aba2:	c4 4e 7d ff 	mov.b	r14,	-131(r4);0xff7d(r4)
    aba6:	8e 10       	swpb	r14		
    aba8:	c4 4e 7e ff 	mov.b	r14,	-130(r4);0xff7e(r4)
    auth_ref_hash.new_hash_idx = ref_msg.new_hash_idx;
    abac:	5d 44 cc ff 	mov.b	-52(r4),r13	;0xffcc(r4)
    abb0:	5f 44 cd ff 	mov.b	-51(r4),r15	;0xffcd(r4)
    abb4:	8f 10       	swpb	r15		
    abb6:	0d df       	bis	r15,	r13	
    abb8:	5e 44 ce ff 	mov.b	-50(r4),r14	;0xffce(r4)
    abbc:	5f 44 cf ff 	mov.b	-49(r4),r15	;0xffcf(r4)
    abc0:	8f 10       	swpb	r15		
    abc2:	0e df       	bis	r15,	r14	
    abc4:	c4 4d 77 ff 	mov.b	r13,	-137(r4);0xff77(r4)
    abc8:	8d 10       	swpb	r13		
    abca:	c4 4d 78 ff 	mov.b	r13,	-136(r4);0xff78(r4)
    abce:	c4 4e 79 ff 	mov.b	r14,	-135(r4);0xff79(r4)
    abd2:	8e 10       	swpb	r14		
    abd4:	c4 4e 7a ff 	mov.b	r14,	-134(r4);0xff7a(r4)
    memcpy(auth_ref_hash.new_hash, ref_msg.new_hash, SIZE_HASH);
    abd8:	3d 40 20 00 	mov	#32,	r13	;#0x0020
    abdc:	0e 44       	mov	r4,	r14	
    abde:	3e 50 d0 ff 	add	#-48,	r14	;#0xffd0
    abe2:	0f 44       	mov	r4,	r15	
    abe4:	3f 50 57 ff 	add	#-169,	r15	;#0xff57
    abe8:	b0 12 ae bf 	call	#0xbfae	
    hash((uint8_t *)hash_res, (uint8_t *)&auth_ref_hash, (uint32_t)sizeof(auth_ref_hash));
    abec:	3c 40 51 00 	mov	#81,	r12	;#0x0051
    abf0:	0d 43       	clr	r13		
    abf2:	0e 44       	mov	r4,	r14	
    abf4:	3e 50 2e ff 	add	#-210,	r14	;#0xff2e
    abf8:	0f 44       	mov	r4,	r15	
    abfa:	3f 50 5a fe 	add	#-422,	r15	;#0xfe5a
    abfe:	b0 12 3e bf 	call	#0xbf3e	
    if (secure_memcmp(hash_res, ref_msg.auth_ref, SIZE_HASH))
    ac02:	3d 40 20 00 	mov	#32,	r13	;#0x0020
    ac06:	0e 44       	mov	r4,	r14	
    ac08:	3e 50 84 ff 	add	#-124,	r14	;#0xff84
    ac0c:	0f 44       	mov	r4,	r15	
    ac0e:	3f 50 5a fe 	add	#-422,	r15	;#0xfe5a
    ac12:	b0 12 50 a1 	call	#0xa150	
    ac16:	0f 93       	tst	r15		
    ac18:	02 24       	jz	$+6      	;abs 0xac1e
    ac1a:	30 40 8e af 	br	#0xaf8e	
    {
      break;
    }


    cur_seq = ref_msg.seq;
    ac1e:	5c 44 a4 ff 	mov.b	-92(r4),r12	;0xffa4(r4)
    ac22:	5d 44 a5 ff 	mov.b	-91(r4),r13	;0xffa5(r4)
    ac26:	8d 10       	swpb	r13		
    ac28:	0e 4d       	mov	r13,	r14	
    ac2a:	0e dc       	bis	r12,	r14	
    ac2c:	5c 44 a6 ff 	mov.b	-90(r4),r12	;0xffa6(r4)
    ac30:	5d 44 a7 ff 	mov.b	-89(r4),r13	;0xffa7(r4)
    ac34:	8d 10       	swpb	r13		
    ac36:	0f 4d       	mov	r13,	r15	
    ac38:	0f dc       	bis	r12,	r15	
    ac3a:	82 4e 38 12 	mov	r14,	&0x1238	
    ac3e:	82 4f 3a 12 	mov	r15,	&0x123a	
    parent = ref_msg.snd_id;
    ac42:	5c 44 80 ff 	mov.b	-128(r4),r12	;0xff80(r4)
    ac46:	5d 44 81 ff 	mov.b	-127(r4),r13	;0xff81(r4)
    ac4a:	8d 10       	swpb	r13		
    ac4c:	0e 4d       	mov	r13,	r14	
    ac4e:	0e dc       	bis	r12,	r14	
    ac50:	5c 44 82 ff 	mov.b	-126(r4),r12	;0xff82(r4)
    ac54:	5d 44 83 ff 	mov.b	-125(r4),r13	;0xff83(r4)
    ac58:	8d 10       	swpb	r13		
    ac5a:	0f 4d       	mov	r13,	r15	
    ac5c:	0f dc       	bis	r12,	r15	
    ac5e:	82 4e 2c 12 	mov	r14,	&0x122c	
    ac62:	82 4f 2e 12 	mov	r15,	&0x122e	
    cur_hash_idx = ref_msg.new_hash_idx;
    ac66:	5c 44 cc ff 	mov.b	-52(r4),r12	;0xffcc(r4)
    ac6a:	5d 44 cd ff 	mov.b	-51(r4),r13	;0xffcd(r4)
    ac6e:	8d 10       	swpb	r13		
    ac70:	0e 4d       	mov	r13,	r14	
    ac72:	0e dc       	bis	r12,	r14	
    ac74:	5c 44 ce ff 	mov.b	-50(r4),r12	;0xffce(r4)
    ac78:	5d 44 cf ff 	mov.b	-49(r4),r13	;0xffcf(r4)
    ac7c:	8d 10       	swpb	r13		
    ac7e:	0f 4d       	mov	r13,	r15	
    ac80:	0f dc       	bis	r12,	r15	
    ac82:	82 4e 04 02 	mov	r14,	&0x0204	
    ac86:	82 4f 06 02 	mov	r15,	&0x0206	
    memcpy(cur_hash, ref_msg.new_hash, SIZE_HASH);
    ac8a:	3d 40 20 00 	mov	#32,	r13	;#0x0020
    ac8e:	0e 44       	mov	r4,	r14	
    ac90:	3e 50 d0 ff 	add	#-48,	r14	;#0xffd0
    ac94:	3f 40 08 02 	mov	#520,	r15	;#0x0208
    ac98:	b0 12 ae bf 	call	#0xbfae	
    req_msg.snd_id = dev_id;
    ac9c:	1e 42 00 02 	mov	&0x0200,r14	
    aca0:	1f 42 02 02 	mov	&0x0202,r15	
    aca4:	c4 4e 89 fd 	mov.b	r14,	-631(r4);0xfd89(r4)
    aca8:	8e 10       	swpb	r14		
    acaa:	c4 4e 8a fd 	mov.b	r14,	-630(r4);0xfd8a(r4)
    acae:	c4 4f 8b fd 	mov.b	r15,	-629(r4);0xfd8b(r4)
    acb2:	8f 10       	swpb	r15		
    acb4:	c4 4f 8c fd 	mov.b	r15,	-628(r4);0xfd8c(r4)
    req_msg.msg_type = MSG_TYPE_REP_REF;
    acb8:	f4 40 03 00 	mov.b	#3,	-632(r4);#0x0003, 0xfd88(r4)
    acbc:	88 fd 
    uint32_t delay_cycle;
    uint32_t timer;
    uint16_t ccr0_high, ccr0_low;


    timer = req_msg.cur_time;
    acbe:	5e 44 d5 fd 	mov.b	-555(r4),r14	;0xfdd5(r4)
    acc2:	5f 44 d6 fd 	mov.b	-554(r4),r15	;0xfdd6(r4)
    acc6:	8f 10       	swpb	r15		
    acc8:	0c 4f       	mov	r15,	r12	
    acca:	0c de       	bis	r14,	r12	
    accc:	5e 44 d7 fd 	mov.b	-553(r4),r14	;0xfdd7(r4)
    acd0:	5f 44 d8 fd 	mov.b	-552(r4),r15	;0xfdd8(r4)
    acd4:	8f 10       	swpb	r15		
    acd6:	0d 4f       	mov	r15,	r13	
    acd8:	0d de       	bis	r14,	r13	
    TACTL = TASSEL_2 + MC_1 + ID_3;
    acda:	b2 40 d0 02 	mov	#720,	&0x0160	;#0x02d0
    acde:	60 01 
    delay_cycle = (uint32_t)timer * 137500UL;
    ace0:	0e 4c       	mov	r12,	r14	
    ace2:	0f 4d       	mov	r13,	r15	
    ace4:	0e 5e       	rla	r14		
    ace6:	0f 6f       	rlc	r15		
    ace8:	0e 5c       	add	r12,	r14	
    acea:	0f 6d       	addc	r13,	r15	
    acec:	0e 5e       	rla	r14		
    acee:	0f 6f       	rlc	r15		
    acf0:	0e 5e       	rla	r14		
    acf2:	0f 6f       	rlc	r15		
    acf4:	0e 5e       	rla	r14		
    acf6:	0f 6f       	rlc	r15		
    acf8:	0e 5e       	rla	r14		
    acfa:	0f 6f       	rlc	r15		
    acfc:	0e 5e       	rla	r14		
    acfe:	0f 6f       	rlc	r15		
    ad00:	0e 5e       	rla	r14		
    ad02:	0f 6f       	rlc	r15		
    ad04:	0e 8c       	sub	r12,	r14	
    ad06:	0f 7d       	subc	r13,	r15	
    ad08:	0a 4e       	mov	r14,	r10	
    ad0a:	0b 4f       	mov	r15,	r11	
    ad0c:	0a 5a       	rla	r10		
    ad0e:	0b 6b       	rlc	r11		
    ad10:	0a 5a       	rla	r10		
    ad12:	0b 6b       	rlc	r11		
    ad14:	0a 5a       	rla	r10		
    ad16:	0b 6b       	rlc	r11		
    ad18:	0a 5e       	add	r14,	r10	
    ad1a:	0b 6f       	addc	r15,	r11	
    ad1c:	0a 5a       	rla	r10		
    ad1e:	0b 6b       	rlc	r11		
    ad20:	0a 5a       	rla	r10		
    ad22:	0b 6b       	rlc	r11		
    ad24:	0a 8c       	sub	r12,	r10	
    ad26:	0b 7d       	subc	r13,	r11	
    ad28:	0e 4a       	mov	r10,	r14	
    ad2a:	0f 4b       	mov	r11,	r15	
    ad2c:	0e 5e       	rla	r14		
    ad2e:	0f 6f       	rlc	r15		
    ad30:	0e 5e       	rla	r14		
    ad32:	0f 6f       	rlc	r15		
    ad34:	0e 5a       	add	r10,	r14	
    ad36:	0f 6b       	addc	r11,	r15	
    ad38:	0e 5e       	rla	r14		
    ad3a:	0f 6f       	rlc	r15		
    ad3c:	0e 5e       	rla	r14		
    ad3e:	0f 6f       	rlc	r15		
    ccr0_high = (uint16_t)(delay_cycle >> 16);
    ccr0_low = (uint16_t)(delay_cycle & 0xFFFF);

    if (ccr0_high > 0) {
    ad40:	0f 93       	tst	r15		
    ad42:	28 20       	jnz	$+82     	;abs 0xad94
    ad44:	31 3c       	jmp	$+100    	;abs 0xada8
        while (timer > 0) {
            if (timer >= 65536) {
    ad46:	1d 93       	cmp	#1,	r13	;r3 As==01
    ad48:	05 28       	jnc	$+12     	;abs 0xad54
                TACCR0 = 0xFFFF;
    ad4a:	b2 43 72 01 	mov	#-1,	&0x0172	;r3 As==11
                timer -= 65536;
    ad4e:	0c 53       	add	#0,	r12	;r3 As==00
    ad50:	3d 63       	addc	#-1,	r13	;r3 As==11
    ad52:	17 3c       	jmp	$+48     	;abs 0xad82
            } else {
                TACCR0 = (uint16_t)((uint32_t)timer * 137500UL);
    ad54:	0e 4c       	mov	r12,	r14	
    ad56:	0c 5c       	rla	r12		
    ad58:	0c 5c       	rla	r12		
    ad5a:	0c 5c       	rla	r12		
    ad5c:	0f 4c       	mov	r12,	r15	
    ad5e:	0f 5f       	rla	r15		
    ad60:	0f 5f       	rla	r15		
    ad62:	0c 5f       	add	r15,	r12	
    ad64:	0f 4c       	mov	r12,	r15	
    ad66:	0f 5f       	rla	r15		
    ad68:	0f 5f       	rla	r15		
    ad6a:	0f 5c       	add	r12,	r15	
    ad6c:	0f 5e       	add	r14,	r15	
    ad6e:	0f 5f       	rla	r15		
    ad70:	0f 5f       	rla	r15		
    ad72:	0f 5f       	rla	r15		
    ad74:	0f 8e       	sub	r14,	r15	
    ad76:	0f 5f       	rla	r15		
    ad78:	0f 5f       	rla	r15		
    ad7a:	82 4f 72 01 	mov	r15,	&0x0172	
                timer = 0;
    ad7e:	0c 43       	clr	r12		
    ad80:	0d 43       	clr	r13		
            }
            TAR = 0x00;
    ad82:	82 43 70 01 	mov	#0,	&0x0170	;r3 As==00
            while ((TACCR0 - TAR) != 0) {
    ad86:	1e 42 72 01 	mov	&0x0172,r14	
    ad8a:	1f 42 70 01 	mov	&0x0170,r15	
    ad8e:	0e 9f       	cmp	r15,	r14	
    ad90:	fa 23       	jnz	$-10     	;abs 0xad86
    ad92:	05 3c       	jmp	$+12     	;abs 0xad9e
    delay_cycle = (uint32_t)timer * 137500UL;
    ccr0_high = (uint16_t)(delay_cycle >> 16);
    ccr0_low = (uint16_t)(delay_cycle & 0xFFFF);

    if (ccr0_high > 0) {
        while (timer > 0) {
    ad94:	0c 93       	tst	r12		
    ad96:	d7 23       	jnz	$-80     	;abs 0xad46
    ad98:	0d 93       	tst	r13		
    ad9a:	d5 23       	jnz	$-84     	;abs 0xad46
    ad9c:	0f 3c       	jmp	$+32     	;abs 0xadbc
    ad9e:	0c 93       	tst	r12		
    ada0:	d2 23       	jnz	$-90     	;abs 0xad46
    ada2:	0d 93       	tst	r13		
    ada4:	d0 23       	jnz	$-94     	;abs 0xad46
    ada6:	0a 3c       	jmp	$+22     	;abs 0xadbc
            TAR = 0x00;
            while ((TACCR0 - TAR) != 0) {
            }
        }
    } else {
        TACCR0 = ccr0_low;
    ada8:	82 4e 72 01 	mov	r14,	&0x0172	
        TAR = 0x00;
    adac:	82 43 70 01 	mov	#0,	&0x0170	;r3 As==00
        while ((TACCR0 - TAR) != 0) {
    adb0:	1e 42 72 01 	mov	&0x0172,r14	
    adb4:	1f 42 70 01 	mov	&0x0170,r15	
    adb8:	0e 9f       	cmp	r15,	r14	
    adba:	fa 23       	jnz	$-10     	;abs 0xadb0
        }
    }

    memset(key, 0, SIZE_KEY);
    adbc:	3d 40 20 00 	mov	#32,	r13	;#0x0020
    adc0:	0e 43       	clr	r14		
    adc2:	0f 44       	mov	r4,	r15	
    adc4:	3f 50 da fd 	add	#-550,	r15	;#0xfdda
    adc8:	b0 12 a8 c0 	call	#0xc0a8	
    memcpy(key, (uint8_t *)KEY_ADDR, SIZE_KEY);
    adcc:	3d 40 20 00 	mov	#32,	r13	;#0x0020
    add0:	3e 40 00 6a 	mov	#27136,	r14	;#0x6a00
    add4:	0f 44       	mov	r4,	r15	
    add6:	3f 50 da fd 	add	#-550,	r15	;#0xfdda
    adda:	b0 12 ae bf 	call	#0xbfae	
    uint8_t auth_rep_refresh[SIZE_SIGNATURE] = {0};
    adde:	3d 40 20 00 	mov	#32,	r13	;#0x0020
    ade2:	0e 43       	clr	r14		
    ade4:	0f 44       	mov	r4,	r15	
    ade6:	3f 50 fa fd 	add	#-518,	r15	;#0xfdfa
    adea:	b0 12 a8 c0 	call	#0xc0a8	
    hmac((uint8_t *)auth_rep_refresh, (uint8_t *)key, (uint32_t)SIZE_KEY, (uint8_t *)&req_msg, (uint32_t)(sizeof(req_msg)));
    adee:	03 12       	push	#0		;r3 As==00
    adf0:	30 12 51 00 	push	#81		;#0x0051
    adf4:	3a 40 88 fd 	mov	#-632,	r10	;#0xfd88
    adf8:	0a 54       	add	r4,	r10	
    adfa:	0a 12       	push	r10		
    adfc:	3c 40 20 00 	mov	#32,	r12	;#0x0020
    ae00:	0d 43       	clr	r13		
    ae02:	0e 44       	mov	r4,	r14	
    ae04:	3e 50 da fd 	add	#-550,	r14	;#0xfdda
    ae08:	0f 44       	mov	r4,	r15	
    ae0a:	3f 50 fa fd 	add	#-518,	r15	;#0xfdfa
    ae0e:	b0 12 54 bf 	call	#0xbf54	
    ae12:	31 50 06 00 	add	#6,	r1	;#0x0006

    struct att_rep att_rep_ref;
    att_rep_ref.msg_type = MSG_TYPE_REP_REF;
    ae16:	f4 40 03 00 	mov.b	#3,	-345(r4);#0x0003, 0xfea7(r4)
    ae1a:	a7 fe 
    att_rep_ref.dev_id = dev_id;
    ae1c:	1e 42 00 02 	mov	&0x0200,r14	
    ae20:	1f 42 02 02 	mov	&0x0202,r15	
    ae24:	c4 4e a8 fe 	mov.b	r14,	-344(r4);0xfea8(r4)
    ae28:	8e 10       	swpb	r14		
    ae2a:	c4 4e a9 fe 	mov.b	r14,	-343(r4);0xfea9(r4)
    ae2e:	c4 4f aa fe 	mov.b	r15,	-342(r4);0xfeaa(r4)
    ae32:	8f 10       	swpb	r15		
    ae34:	c4 4f ab fe 	mov.b	r15,	-341(r4);0xfeab(r4)
    att_rep_ref.par = parent;
    ae38:	1e 42 2c 12 	mov	&0x122c,r14	
    ae3c:	1f 42 2e 12 	mov	&0x122e,r15	
    ae40:	c4 4e ac fe 	mov.b	r14,	-340(r4);0xfeac(r4)
    ae44:	8e 10       	swpb	r14		
    ae46:	c4 4e ad fe 	mov.b	r14,	-339(r4);0xfead(r4)
    ae4a:	c4 4f ae fe 	mov.b	r15,	-338(r4);0xfeae(r4)
    ae4e:	8f 10       	swpb	r15		
    ae50:	c4 4f af fe 	mov.b	r15,	-337(r4);0xfeaf(r4)
    att_rep_ref.seq = cur_seq;
    ae54:	1e 42 38 12 	mov	&0x1238,r14	
    ae58:	1f 42 3a 12 	mov	&0x123a,r15	
    ae5c:	c4 4e b0 fe 	mov.b	r14,	-336(r4);0xfeb0(r4)
    ae60:	8e 10       	swpb	r14		
    ae62:	c4 4e b1 fe 	mov.b	r14,	-335(r4);0xfeb1(r4)
    ae66:	c4 4f b2 fe 	mov.b	r15,	-334(r4);0xfeb2(r4)
    ae6a:	8f 10       	swpb	r15		
    ae6c:	c4 4f b3 fe 	mov.b	r15,	-333(r4);0xfeb3(r4)
    memcpy(att_rep_ref.auth_rep, auth_rep_refresh, SIZE_HASH);
    ae70:	3d 40 20 00 	mov	#32,	r13	;#0x0020
    ae74:	0e 44       	mov	r4,	r14	
    ae76:	3e 50 fa fd 	add	#-518,	r14	;#0xfdfa
    ae7a:	0f 44       	mov	r4,	r15	
    ae7c:	3f 50 b4 fe 	add	#-332,	r15	;#0xfeb4
    ae80:	b0 12 ae bf 	call	#0xbfae	
    send_buf(&att_rep_ref, sizeof(att_rep_ref));
    ae84:	3e 40 2d 00 	mov	#45,	r14	;#0x002d
    ae88:	0f 44       	mov	r4,	r15	
    ae8a:	3f 50 a7 fe 	add	#-345,	r15	;#0xfea7
    ae8e:	b0 12 1a a3 	call	#0xa31a	
    break;
    ae92:	7d 3c       	jmp	$+252    	;abs 0xaf8e

  case MSG_TYPE_REP:;
    // if rep continue to rep_refresh (they're identical)
  case MSG_TYPE_REP_REF:;
    struct att_rep rep_msg;
    if (rx_start > rx_end)
    ae94:	59 42 28 12 	mov.b	&0x1228,r9	
    ae98:	49 9e       	cmp.b	r14,	r9	
    ae9a:	27 2c       	jc	$+80     	;abs 0xaeea
    {
      my_memcpy((uint8_t *)&rep_msg, &rxdata[rx_start], RING_BUF_SIZE - rx_start);
    ae9c:	3b 40 00 01 	mov	#256,	r11	;#0x0100
    aea0:	0b 8f       	sub	r15,	r11	
    aea2:	4e 4e       	mov.b	r14,	r14	
    aea4:	0a 4e       	mov	r14,	r10	
    aea6:	3a 50 3c 12 	add	#4668,	r10	;#0x123c
    uint8_t *data,
    uint32_t datalen);

__attribute__((section(".do_mac.lib"))) inline void my_memcpy(uint8_t *dst, uint8_t *src, int size)
{
  for (int i = 0; i < size; i++)
    aeaa:	1b 93       	cmp	#1,	r11	;r3 As==01
    aeac:	0c 38       	jl	$+26     	;abs 0xaec6
    aeae:	0f 43       	clr	r15		
                   "\n\t");
  __asm__ volatile("br      #__mac_leave"
                   "\n\t");
}

__attribute__((section(".do_mac.lib"))) void read_byte()
    aeb0:	3d 40 7a fe 	mov	#-390,	r13	;#0xfe7a
    aeb4:	0d 54       	add	r4,	r13	
    aeb6:	0d 5f       	add	r15,	r13	
    aeb8:	0c 4a       	mov	r10,	r12	
    aeba:	0c 5f       	add	r15,	r12	
    uint32_t datalen);

__attribute__((section(".do_mac.lib"))) inline void my_memcpy(uint8_t *dst, uint8_t *src, int size)
{
  for (int i = 0; i < size; i++)
    dst[i] = src[i];
    aebc:	ed 4c 00 00 	mov.b	@r12,	0(r13)	;0x0000(r13)
    uint8_t *data,
    uint32_t datalen);

__attribute__((section(".do_mac.lib"))) inline void my_memcpy(uint8_t *dst, uint8_t *src, int size)
{
  for (int i = 0; i < size; i++)
    aec0:	1f 53       	inc	r15		
    aec2:	0f 9b       	cmp	r11,	r15	
    aec4:	f5 23       	jnz	$-20     	;abs 0xaeb0
  case MSG_TYPE_REP_REF:;
    struct att_rep rep_msg;
    if (rx_start > rx_end)
    {
      my_memcpy((uint8_t *)&rep_msg, &rxdata[rx_start], RING_BUF_SIZE - rx_start);
      my_memcpy(((uint8_t *)&rep_msg + RING_BUF_SIZE - rx_start), &rxdata[0], rx_end + 1);
    aec6:	3c 40 88 fd 	mov	#-632,	r12	;#0xfd88
    aeca:	0c 54       	add	r4,	r12	
    aecc:	0c 8e       	sub	r14,	r12	
    aece:	3c 50 f2 01 	add	#498,	r12	;#0x01f2
                   "\n\t");
  __asm__ volatile("br      #__mac_leave"
                   "\n\t");
}

__attribute__((section(".do_mac.lib"))) void read_byte()
    aed2:	4d 49       	mov.b	r9,	r13	
    aed4:	1d 53       	inc	r13		
    uint8_t *data,
    uint32_t datalen);

__attribute__((section(".do_mac.lib"))) inline void my_memcpy(uint8_t *dst, uint8_t *src, int size)
{
  for (int i = 0; i < size; i++)
    aed6:	0f 43       	clr	r15		
                   "\n\t");
  __asm__ volatile("br      #__mac_leave"
                   "\n\t");
}

__attribute__((section(".do_mac.lib"))) void read_byte()
    aed8:	0e 4c       	mov	r12,	r14	
    aeda:	0e 5f       	add	r15,	r14	
    uint32_t datalen);

__attribute__((section(".do_mac.lib"))) inline void my_memcpy(uint8_t *dst, uint8_t *src, int size)
{
  for (int i = 0; i < size; i++)
    dst[i] = src[i];
    aedc:	de 4f 3c 12 	mov.b	4668(r15),0(r14)	;0x123c(r15), 0x0000(r14)
    aee0:	00 00 
    uint8_t *data,
    uint32_t datalen);

__attribute__((section(".do_mac.lib"))) inline void my_memcpy(uint8_t *dst, uint8_t *src, int size)
{
  for (int i = 0; i < size; i++)
    aee2:	1f 53       	inc	r15		
    aee4:	0f 9d       	cmp	r13,	r15	
    aee6:	f8 23       	jnz	$-14     	;abs 0xaed8
    aee8:	16 3c       	jmp	$+46     	;abs 0xaf16
      my_memcpy((uint8_t *)&rep_msg, &rxdata[rx_start], RING_BUF_SIZE - rx_start);
      my_memcpy(((uint8_t *)&rep_msg + RING_BUF_SIZE - rx_start), &rxdata[0], rx_end + 1);
    }
    else
    {
      my_memcpy((uint8_t *)&rep_msg, &rxdata[rx_start], rx_end - rx_start + 1);
    aeea:	4b 49       	mov.b	r9,	r11	
    aeec:	0b 8f       	sub	r15,	r11	
    aeee:	4e 4e       	mov.b	r14,	r14	
    aef0:	3e 50 3c 12 	add	#4668,	r14	;#0x123c
    aef4:	0f 4b       	mov	r11,	r15	
    aef6:	1f 53       	inc	r15		
    uint8_t *data,
    uint32_t datalen);

__attribute__((section(".do_mac.lib"))) inline void my_memcpy(uint8_t *dst, uint8_t *src, int size)
{
  for (int i = 0; i < size; i++)
    aef8:	1f 93       	cmp	#1,	r15	;r3 As==01
    aefa:	0d 38       	jl	$+28     	;abs 0xaf16
                   "\n\t");
  __asm__ volatile("br      #__mac_leave"
                   "\n\t");
}

__attribute__((section(".do_mac.lib"))) void read_byte()
    aefc:	0b 4f       	mov	r15,	r11	
    uint8_t *data,
    uint32_t datalen);

__attribute__((section(".do_mac.lib"))) inline void my_memcpy(uint8_t *dst, uint8_t *src, int size)
{
  for (int i = 0; i < size; i++)
    aefe:	0f 43       	clr	r15		
                   "\n\t");
  __asm__ volatile("br      #__mac_leave"
                   "\n\t");
}

__attribute__((section(".do_mac.lib"))) void read_byte()
    af00:	3d 40 7a fe 	mov	#-390,	r13	;#0xfe7a
    af04:	0d 54       	add	r4,	r13	
    af06:	0d 5f       	add	r15,	r13	
    af08:	0c 4e       	mov	r14,	r12	
    af0a:	0c 5f       	add	r15,	r12	
    uint32_t datalen);

__attribute__((section(".do_mac.lib"))) inline void my_memcpy(uint8_t *dst, uint8_t *src, int size)
{
  for (int i = 0; i < size; i++)
    dst[i] = src[i];
    af0c:	ed 4c 00 00 	mov.b	@r12,	0(r13)	;0x0000(r13)
    uint8_t *data,
    uint32_t datalen);

__attribute__((section(".do_mac.lib"))) inline void my_memcpy(uint8_t *dst, uint8_t *src, int size)
{
  for (int i = 0; i < size; i++)
    af10:	1f 53       	inc	r15		
    af12:	0f 9b       	cmp	r11,	r15	
    af14:	f5 23       	jnz	$-20     	;abs 0xaf00
    }
    else
    {
      my_memcpy((uint8_t *)&rep_msg, &rxdata[rx_start], rx_end - rx_start + 1);
    }
    send_buf((uint8_t *)&rep_msg, sizeof(rep_msg));
    af16:	3e 40 2d 00 	mov	#45,	r14	;#0x002d
    af1a:	0f 44       	mov	r4,	r15	
    af1c:	3f 50 7a fe 	add	#-390,	r15	;#0xfe7a
    af20:	b0 12 1a a3 	call	#0xa31a	
    memset(rxdata, 0, sizeof(rxdata));
    af24:	3d 40 00 01 	mov	#256,	r13	;#0x0100
    af28:	0e 43       	clr	r14		
    af2a:	3f 40 3c 12 	mov	#4668,	r15	;#0x123c
    af2e:	b0 12 a8 c0 	call	#0xc0a8	
    rx_start = 0;
    af32:	c2 43 2a 12 	mov.b	#0,	&0x122a	;r3 As==00
    rx_end = 0;
    af36:	c2 43 28 12 	mov.b	#0,	&0x1228	;r3 As==00
    if (rep_msg.seq == cur_seq)
    af3a:	1e 42 38 12 	mov	&0x1238,r14	
    af3e:	1f 42 3a 12 	mov	&0x123a,r15	
    af42:	5c 44 83 fe 	mov.b	-381(r4),r12	;0xfe83(r4)
    af46:	5d 44 84 fe 	mov.b	-380(r4),r13	;0xfe84(r4)
    af4a:	8d 10       	swpb	r13		
    af4c:	0b 4d       	mov	r13,	r11	
    af4e:	0b dc       	bis	r12,	r11	
    af50:	5c 44 85 fe 	mov.b	-379(r4),r12	;0xfe85(r4)
    af54:	5d 44 86 fe 	mov.b	-378(r4),r13	;0xfe86(r4)
    af58:	8d 10       	swpb	r13		
    af5a:	0d dc       	bis	r12,	r13	
    af5c:	0b 9e       	cmp	r14,	r11	
    af5e:	17 20       	jnz	$+48     	;abs 0xaf8e
    af60:	0d 9f       	cmp	r15,	r13	
    af62:	15 20       	jnz	$+44     	;abs 0xaf8e
    {
      rep_msg.par = parent;
    af64:	1e 42 2c 12 	mov	&0x122c,r14	
    af68:	1f 42 2e 12 	mov	&0x122e,r15	
    af6c:	c4 4e 7f fe 	mov.b	r14,	-385(r4);0xfe7f(r4)
    af70:	8e 10       	swpb	r14		
    af72:	c4 4e 80 fe 	mov.b	r14,	-384(r4);0xfe80(r4)
    af76:	c4 4f 81 fe 	mov.b	r15,	-383(r4);0xfe81(r4)
    af7a:	8f 10       	swpb	r15		
    af7c:	c4 4f 82 fe 	mov.b	r15,	-382(r4);0xfe82(r4)
      send_buf(&rep_msg, sizeof(rep_msg));
    af80:	3e 40 2d 00 	mov	#45,	r14	;#0x002d
    af84:	0f 44       	mov	r4,	r15	
    af86:	3f 50 7a fe 	add	#-390,	r15	;#0xfe7a
    af8a:	b0 12 1a a3 	call	#0xa31a	
    }
    break;
  default:
    break;
  }
  UART_STAT = UART_RX_PND;
    af8e:	f2 40 10 00 	mov.b	#16,	&0x0081	;#0x0010
    af92:	81 00 
}
    af94:	31 50 6c 02 	add	#620,	r1	;#0x026c
    af98:	34 41       	pop	r4		
    af9a:	37 41       	pop	r7		
    af9c:	38 41       	pop	r8		
    af9e:	39 41       	pop	r9		
    afa0:	3a 41       	pop	r10		
    afa2:	3b 41       	pop	r11		
    afa4:	30 41       	ret			

0000afa6 <time_sync>:
  uint8_t auth_rep[SIZE_HASH];
};

/* time sync function */
__attribute__((section(".do_mac.lib"))) void time_sync()
{
    afa6:	21 83       	decd	r1		
  uint8_t readyByte = 0;
    afa8:	c1 43 00 00 	mov.b	#0,	0(r1)	;r3 As==00, 0x0000(r1)
  uint8_t sendByte = ACKTWO;
    afac:	f1 40 66 00 	mov.b	#102,	1(r1)	;#0x0066, 0x0001(r1)
    afb0:	01 00 
  send_buf(&sendByte, sizeof(sendByte));
    afb2:	1e 43       	mov	#1,	r14	;r3 As==01
    afb4:	0f 41       	mov	r1,	r15	
    afb6:	1f 53       	inc	r15		
    afb8:	b0 12 1a a3 	call	#0xa31a	
  while (readyByte != ACK)
    afbc:	f1 90 61 00 	cmp.b	#97,	0(r1)	;#0x0061, 0x0000(r1)
    afc0:	00 00 
    afc2:	0d 24       	jz	$+28     	;abs 0xafde
  {

    send_buf(&sendByte, sizeof(sendByte));
    afc4:	1e 43       	mov	#1,	r14	;r3 As==01
    afc6:	0f 41       	mov	r1,	r15	
    afc8:	1f 53       	inc	r15		
    afca:	b0 12 1a a3 	call	#0xa31a	
    recv_buf(&readyByte, sizeof(readyByte));
    afce:	1e 43       	mov	#1,	r14	;r3 As==01
    afd0:	0f 41       	mov	r1,	r15	
    afd2:	b0 12 6c a2 	call	#0xa26c	
__attribute__((section(".do_mac.lib"))) void time_sync()
{
  uint8_t readyByte = 0;
  uint8_t sendByte = ACKTWO;
  send_buf(&sendByte, sizeof(sendByte));
  while (readyByte != ACK)
    afd6:	f1 90 61 00 	cmp.b	#97,	0(r1)	;#0x0061, 0x0000(r1)
    afda:	00 00 
    afdc:	f3 23       	jnz	$-24     	;abs 0xafc4

    send_buf(&sendByte, sizeof(sendByte));
    recv_buf(&readyByte, sizeof(readyByte));
  }

  recv_buf(&epoch_time, sizeof(epoch_time));
    afde:	2e 42       	mov	#4,	r14	;r2 As==10
    afe0:	3f 40 3c 13 	mov	#4924,	r15	;#0x133c
    afe4:	b0 12 6c a2 	call	#0xa26c	
  send_buf(&epoch_time, sizeof(epoch_time));
    afe8:	2e 42       	mov	#4,	r14	;r2 As==10
    afea:	3f 40 3c 13 	mov	#4924,	r15	;#0x133c
    afee:	b0 12 1a a3 	call	#0xa31a	

  return;
}
    aff2:	21 53       	incd	r1		
    aff4:	30 41       	ret			

0000aff6 <Hacl_Impl_SHA2_256_init>:
  uint32_t *p4 = k1 + (uint32_t)48U;
  uint32_t *p11 = p10;
  uint32_t *p21 = p10 + (uint32_t)8U;
  uint32_t *p12 = p11;
  uint32_t *p22 = p11 + (uint32_t)4U;
  p12[0U] = (uint32_t)0x428a2f98U;
    aff6:	bf 40 98 2f 	mov	#12184,	0(r15)	;#0x2f98, 0x0000(r15)
    affa:	00 00 
    affc:	bf 40 8a 42 	mov	#17034,	2(r15)	;#0x428a, 0x0002(r15)
    b000:	02 00 
  p12[1U] = (uint32_t)0x71374491U;
    b002:	bf 40 91 44 	mov	#17553,	4(r15)	;#0x4491, 0x0004(r15)
    b006:	04 00 
    b008:	bf 40 37 71 	mov	#28983,	6(r15)	;#0x7137, 0x0006(r15)
    b00c:	06 00 
  p12[2U] = (uint32_t)0xb5c0fbcfU;
    b00e:	bf 40 cf fb 	mov	#-1073,	8(r15)	;#0xfbcf, 0x0008(r15)
    b012:	08 00 
    b014:	bf 40 c0 b5 	mov	#-19008,10(r15)	;#0xb5c0, 0x000a(r15)
    b018:	0a 00 
  p12[3U] = (uint32_t)0xe9b5dba5U;
    b01a:	bf 40 a5 db 	mov	#-9307,	12(r15)	;#0xdba5, 0x000c(r15)
    b01e:	0c 00 
    b020:	bf 40 b5 e9 	mov	#-5707,	14(r15)	;#0xe9b5, 0x000e(r15)
    b024:	0e 00 
  p22[0U] = (uint32_t)0x3956c25bU;
    b026:	bf 40 5b c2 	mov	#-15781,16(r15)	;#0xc25b, 0x0010(r15)
    b02a:	10 00 
    b02c:	bf 40 56 39 	mov	#14678,	18(r15)	;#0x3956, 0x0012(r15)
    b030:	12 00 
  p22[1U] = (uint32_t)0x59f111f1U;
    b032:	bf 40 f1 11 	mov	#4593,	20(r15)	;#0x11f1, 0x0014(r15)
    b036:	14 00 
    b038:	bf 40 f1 59 	mov	#23025,	22(r15)	;#0x59f1, 0x0016(r15)
    b03c:	16 00 
  p22[2U] = (uint32_t)0x923f82a4U;
    b03e:	bf 40 a4 82 	mov	#-32092,24(r15)	;#0x82a4, 0x0018(r15)
    b042:	18 00 
    b044:	bf 40 3f 92 	mov	#-28097,26(r15)	;#0x923f, 0x001a(r15)
    b048:	1a 00 
  p22[3U] = (uint32_t)0xab1c5ed5U;
    b04a:	bf 40 d5 5e 	mov	#24277,	28(r15)	;#0x5ed5, 0x001c(r15)
    b04e:	1c 00 
    b050:	bf 40 1c ab 	mov	#-21732,30(r15)	;#0xab1c, 0x001e(r15)
    b054:	1e 00 
  uint32_t *p13 = p21;
  uint32_t *p23 = p21 + (uint32_t)4U;
  p13[0U] = (uint32_t)0xd807aa98U;
    b056:	bf 40 98 aa 	mov	#-21864,32(r15)	;#0xaa98, 0x0020(r15)
    b05a:	20 00 
    b05c:	bf 40 07 d8 	mov	#-10233,34(r15)	;#0xd807, 0x0022(r15)
    b060:	22 00 
  p13[1U] = (uint32_t)0x12835b01U;
    b062:	bf 40 01 5b 	mov	#23297,	36(r15)	;#0x5b01, 0x0024(r15)
    b066:	24 00 
    b068:	bf 40 83 12 	mov	#4739,	38(r15)	;#0x1283, 0x0026(r15)
    b06c:	26 00 
  p13[2U] = (uint32_t)0x243185beU;
    b06e:	bf 40 be 85 	mov	#-31298,40(r15)	;#0x85be, 0x0028(r15)
    b072:	28 00 
    b074:	bf 40 31 24 	mov	#9265,	42(r15)	;#0x2431, 0x002a(r15)
    b078:	2a 00 
  p13[3U] = (uint32_t)0x550c7dc3U;
    b07a:	bf 40 c3 7d 	mov	#32195,	44(r15)	;#0x7dc3, 0x002c(r15)
    b07e:	2c 00 
    b080:	bf 40 0c 55 	mov	#21772,	46(r15)	;#0x550c, 0x002e(r15)
    b084:	2e 00 
  p23[0U] = (uint32_t)0x72be5d74U;
    b086:	bf 40 74 5d 	mov	#23924,	48(r15)	;#0x5d74, 0x0030(r15)
    b08a:	30 00 
    b08c:	bf 40 be 72 	mov	#29374,	50(r15)	;#0x72be, 0x0032(r15)
    b090:	32 00 
  p23[1U] = (uint32_t)0x80deb1feU;
    b092:	bf 40 fe b1 	mov	#-19970,52(r15)	;#0xb1fe, 0x0034(r15)
    b096:	34 00 
    b098:	bf 40 de 80 	mov	#-32546,54(r15)	;#0x80de, 0x0036(r15)
    b09c:	36 00 
  p23[2U] = (uint32_t)0x9bdc06a7U;
    b09e:	bf 40 a7 06 	mov	#1703,	56(r15)	;#0x06a7, 0x0038(r15)
    b0a2:	38 00 
    b0a4:	bf 40 dc 9b 	mov	#-25636,58(r15)	;#0x9bdc, 0x003a(r15)
    b0a8:	3a 00 
  p23[3U] = (uint32_t)0xc19bf174U;
    b0aa:	bf 40 74 f1 	mov	#-3724,	60(r15)	;#0xf174, 0x003c(r15)
    b0ae:	3c 00 
    b0b0:	bf 40 9b c1 	mov	#-15973,62(r15)	;#0xc19b, 0x003e(r15)
    b0b4:	3e 00 
  uint32_t *p14 = p20;
  uint32_t *p24 = p20 + (uint32_t)8U;
  uint32_t *p15 = p14;
  uint32_t *p25 = p14 + (uint32_t)4U;
  p15[0U] = (uint32_t)0xe49b69c1U;
    b0b6:	bf 40 c1 69 	mov	#27073,	64(r15)	;#0x69c1, 0x0040(r15)
    b0ba:	40 00 
    b0bc:	bf 40 9b e4 	mov	#-7013,	66(r15)	;#0xe49b, 0x0042(r15)
    b0c0:	42 00 
  p15[1U] = (uint32_t)0xefbe4786U;
    b0c2:	bf 40 86 47 	mov	#18310,	68(r15)	;#0x4786, 0x0044(r15)
    b0c6:	44 00 
    b0c8:	bf 40 be ef 	mov	#-4162,	70(r15)	;#0xefbe, 0x0046(r15)
    b0cc:	46 00 
  p15[2U] = (uint32_t)0x0fc19dc6U;
    b0ce:	bf 40 c6 9d 	mov	#-25146,72(r15)	;#0x9dc6, 0x0048(r15)
    b0d2:	48 00 
    b0d4:	bf 40 c1 0f 	mov	#4033,	74(r15)	;#0x0fc1, 0x004a(r15)
    b0d8:	4a 00 
  p15[3U] = (uint32_t)0x240ca1ccU;
    b0da:	bf 40 cc a1 	mov	#-24116,76(r15)	;#0xa1cc, 0x004c(r15)
    b0de:	4c 00 
    b0e0:	bf 40 0c 24 	mov	#9228,	78(r15)	;#0x240c, 0x004e(r15)
    b0e4:	4e 00 
  p25[0U] = (uint32_t)0x2de92c6fU;
    b0e6:	bf 40 6f 2c 	mov	#11375,	80(r15)	;#0x2c6f, 0x0050(r15)
    b0ea:	50 00 
    b0ec:	bf 40 e9 2d 	mov	#11753,	82(r15)	;#0x2de9, 0x0052(r15)
    b0f0:	52 00 
  p25[1U] = (uint32_t)0x4a7484aaU;
    b0f2:	bf 40 aa 84 	mov	#-31574,84(r15)	;#0x84aa, 0x0054(r15)
    b0f6:	54 00 
    b0f8:	bf 40 74 4a 	mov	#19060,	86(r15)	;#0x4a74, 0x0056(r15)
    b0fc:	56 00 
  p25[2U] = (uint32_t)0x5cb0a9dcU;
    b0fe:	bf 40 dc a9 	mov	#-22052,88(r15)	;#0xa9dc, 0x0058(r15)
    b102:	58 00 
    b104:	bf 40 b0 5c 	mov	#23728,	90(r15)	;#0x5cb0, 0x005a(r15)
    b108:	5a 00 
  p25[3U] = (uint32_t)0x76f988daU;
    b10a:	bf 40 da 88 	mov	#-30502,92(r15)	;#0x88da, 0x005c(r15)
    b10e:	5c 00 
    b110:	bf 40 f9 76 	mov	#30457,	94(r15)	;#0x76f9, 0x005e(r15)
    b114:	5e 00 
  uint32_t *p16 = p24;
  uint32_t *p26 = p24 + (uint32_t)4U;
  p16[0U] = (uint32_t)0x983e5152U;
    b116:	bf 40 52 51 	mov	#20818,	96(r15)	;#0x5152, 0x0060(r15)
    b11a:	60 00 
    b11c:	bf 40 3e 98 	mov	#-26562,98(r15)	;#0x983e, 0x0062(r15)
    b120:	62 00 
  p16[1U] = (uint32_t)0xa831c66dU;
    b122:	bf 40 6d c6 	mov	#-14739,100(r15);#0xc66d, 0x0064(r15)
    b126:	64 00 
    b128:	bf 40 31 a8 	mov	#-22479,102(r15);#0xa831, 0x0066(r15)
    b12c:	66 00 
  p16[2U] = (uint32_t)0xb00327c8U;
    b12e:	bf 40 c8 27 	mov	#10184,	104(r15);#0x27c8, 0x0068(r15)
    b132:	68 00 
    b134:	bf 40 03 b0 	mov	#-20477,106(r15);#0xb003, 0x006a(r15)
    b138:	6a 00 
  p16[3U] = (uint32_t)0xbf597fc7U;
    b13a:	bf 40 c7 7f 	mov	#32711,	108(r15);#0x7fc7, 0x006c(r15)
    b13e:	6c 00 
    b140:	bf 40 59 bf 	mov	#-16551,110(r15);#0xbf59, 0x006e(r15)
    b144:	6e 00 
  p26[0U] = (uint32_t)0xc6e00bf3U;
    b146:	bf 40 f3 0b 	mov	#3059,	112(r15);#0x0bf3, 0x0070(r15)
    b14a:	70 00 
    b14c:	bf 40 e0 c6 	mov	#-14624,114(r15);#0xc6e0, 0x0072(r15)
    b150:	72 00 
  p26[1U] = (uint32_t)0xd5a79147U;
    b152:	bf 40 47 91 	mov	#-28345,116(r15);#0x9147, 0x0074(r15)
    b156:	74 00 
    b158:	bf 40 a7 d5 	mov	#-10841,118(r15);#0xd5a7, 0x0076(r15)
    b15c:	76 00 
  p26[2U] = (uint32_t)0x06ca6351U;
    b15e:	bf 40 51 63 	mov	#25425,	120(r15);#0x6351, 0x0078(r15)
    b162:	78 00 
    b164:	bf 40 ca 06 	mov	#1738,	122(r15);#0x06ca, 0x007a(r15)
    b168:	7a 00 
  p26[3U] = (uint32_t)0x14292967U;
    b16a:	bf 40 67 29 	mov	#10599,	124(r15);#0x2967, 0x007c(r15)
    b16e:	7c 00 
    b170:	bf 40 29 14 	mov	#5161,	126(r15);#0x1429, 0x007e(r15)
    b174:	7e 00 
  uint32_t *p17 = p3;
  uint32_t *p27 = p3 + (uint32_t)8U;
  uint32_t *p18 = p17;
  uint32_t *p28 = p17 + (uint32_t)4U;
  p18[0U] = (uint32_t)0x27b70a85U;
    b176:	bf 40 85 0a 	mov	#2693,	128(r15);#0x0a85, 0x0080(r15)
    b17a:	80 00 
    b17c:	bf 40 b7 27 	mov	#10167,	130(r15);#0x27b7, 0x0082(r15)
    b180:	82 00 
  p18[1U] = (uint32_t)0x2e1b2138U;
    b182:	bf 40 38 21 	mov	#8504,	132(r15);#0x2138, 0x0084(r15)
    b186:	84 00 
    b188:	bf 40 1b 2e 	mov	#11803,	134(r15);#0x2e1b, 0x0086(r15)
    b18c:	86 00 
  p18[2U] = (uint32_t)0x4d2c6dfcU;
    b18e:	bf 40 fc 6d 	mov	#28156,	136(r15);#0x6dfc, 0x0088(r15)
    b192:	88 00 
    b194:	bf 40 2c 4d 	mov	#19756,	138(r15);#0x4d2c, 0x008a(r15)
    b198:	8a 00 
  p18[3U] = (uint32_t)0x53380d13U;
    b19a:	bf 40 13 0d 	mov	#3347,	140(r15);#0x0d13, 0x008c(r15)
    b19e:	8c 00 
    b1a0:	bf 40 38 53 	mov	#21304,	142(r15);#0x5338, 0x008e(r15)
    b1a4:	8e 00 
  p28[0U] = (uint32_t)0x650a7354U;
    b1a6:	bf 40 54 73 	mov	#29524,	144(r15);#0x7354, 0x0090(r15)
    b1aa:	90 00 
    b1ac:	bf 40 0a 65 	mov	#25866,	146(r15);#0x650a, 0x0092(r15)
    b1b0:	92 00 
  p28[1U] = (uint32_t)0x766a0abbU;
    b1b2:	bf 40 bb 0a 	mov	#2747,	148(r15);#0x0abb, 0x0094(r15)
    b1b6:	94 00 
    b1b8:	bf 40 6a 76 	mov	#30314,	150(r15);#0x766a, 0x0096(r15)
    b1bc:	96 00 
  p28[2U] = (uint32_t)0x81c2c92eU;
    b1be:	bf 40 2e c9 	mov	#-14034,152(r15);#0xc92e, 0x0098(r15)
    b1c2:	98 00 
    b1c4:	bf 40 c2 81 	mov	#-32318,154(r15);#0x81c2, 0x009a(r15)
    b1c8:	9a 00 
  p28[3U] = (uint32_t)0x92722c85U;
    b1ca:	bf 40 85 2c 	mov	#11397,	156(r15);#0x2c85, 0x009c(r15)
    b1ce:	9c 00 
    b1d0:	bf 40 72 92 	mov	#-28046,158(r15);#0x9272, 0x009e(r15)
    b1d4:	9e 00 
  uint32_t *p19 = p27;
  uint32_t *p29 = p27 + (uint32_t)4U;
  p19[0U] = (uint32_t)0xa2bfe8a1U;
    b1d6:	bf 40 a1 e8 	mov	#-5983,	160(r15);#0xe8a1, 0x00a0(r15)
    b1da:	a0 00 
    b1dc:	bf 40 bf a2 	mov	#-23873,162(r15);#0xa2bf, 0x00a2(r15)
    b1e0:	a2 00 
  p19[1U] = (uint32_t)0xa81a664bU;
    b1e2:	bf 40 4b 66 	mov	#26187,	164(r15);#0x664b, 0x00a4(r15)
    b1e6:	a4 00 
    b1e8:	bf 40 1a a8 	mov	#-22502,166(r15);#0xa81a, 0x00a6(r15)
    b1ec:	a6 00 
  p19[2U] = (uint32_t)0xc24b8b70U;
    b1ee:	bf 40 70 8b 	mov	#-29840,168(r15);#0x8b70, 0x00a8(r15)
    b1f2:	a8 00 
    b1f4:	bf 40 4b c2 	mov	#-15797,170(r15);#0xc24b, 0x00aa(r15)
    b1f8:	aa 00 
  p19[3U] = (uint32_t)0xc76c51a3U;
    b1fa:	bf 40 a3 51 	mov	#20899,	172(r15);#0x51a3, 0x00ac(r15)
    b1fe:	ac 00 
    b200:	bf 40 6c c7 	mov	#-14484,174(r15);#0xc76c, 0x00ae(r15)
    b204:	ae 00 
  p29[0U] = (uint32_t)0xd192e819U;
    b206:	bf 40 19 e8 	mov	#-6119,	176(r15);#0xe819, 0x00b0(r15)
    b20a:	b0 00 
    b20c:	bf 40 92 d1 	mov	#-11886,178(r15);#0xd192, 0x00b2(r15)
    b210:	b2 00 
  p29[1U] = (uint32_t)0xd6990624U;
    b212:	bf 40 24 06 	mov	#1572,	180(r15);#0x0624, 0x00b4(r15)
    b216:	b4 00 
    b218:	bf 40 99 d6 	mov	#-10599,182(r15);#0xd699, 0x00b6(r15)
    b21c:	b6 00 
  p29[2U] = (uint32_t)0xf40e3585U;
    b21e:	bf 40 85 35 	mov	#13701,	184(r15);#0x3585, 0x00b8(r15)
    b222:	b8 00 
    b224:	bf 40 0e f4 	mov	#-3058,	186(r15);#0xf40e, 0x00ba(r15)
    b228:	ba 00 
  p29[3U] = (uint32_t)0x106aa070U;
    b22a:	bf 40 70 a0 	mov	#-24464,188(r15);#0xa070, 0x00bc(r15)
    b22e:	bc 00 
    b230:	bf 40 6a 10 	mov	#4202,	190(r15);#0x106a, 0x00be(r15)
    b234:	be 00 
  uint32_t *p110 = p4;
  uint32_t *p210 = p4 + (uint32_t)8U;
  uint32_t *p1 = p110;
  uint32_t *p211 = p110 + (uint32_t)4U;
  p1[0U] = (uint32_t)0x19a4c116U;
    b236:	bf 40 16 c1 	mov	#-16106,192(r15);#0xc116, 0x00c0(r15)
    b23a:	c0 00 
    b23c:	bf 40 a4 19 	mov	#6564,	194(r15);#0x19a4, 0x00c2(r15)
    b240:	c2 00 
  p1[1U] = (uint32_t)0x1e376c08U;
    b242:	bf 40 08 6c 	mov	#27656,	196(r15);#0x6c08, 0x00c4(r15)
    b246:	c4 00 
    b248:	bf 40 37 1e 	mov	#7735,	198(r15);#0x1e37, 0x00c6(r15)
    b24c:	c6 00 
  p1[2U] = (uint32_t)0x2748774cU;
    b24e:	bf 40 4c 77 	mov	#30540,	200(r15);#0x774c, 0x00c8(r15)
    b252:	c8 00 
    b254:	bf 40 48 27 	mov	#10056,	202(r15);#0x2748, 0x00ca(r15)
    b258:	ca 00 
  p1[3U] = (uint32_t)0x34b0bcb5U;
    b25a:	bf 40 b5 bc 	mov	#-17227,204(r15);#0xbcb5, 0x00cc(r15)
    b25e:	cc 00 
    b260:	bf 40 b0 34 	mov	#13488,	206(r15);#0x34b0, 0x00ce(r15)
    b264:	ce 00 
  p211[0U] = (uint32_t)0x391c0cb3U;
    b266:	bf 40 b3 0c 	mov	#3251,	208(r15);#0x0cb3, 0x00d0(r15)
    b26a:	d0 00 
    b26c:	bf 40 1c 39 	mov	#14620,	210(r15);#0x391c, 0x00d2(r15)
    b270:	d2 00 
  p211[1U] = (uint32_t)0x4ed8aa4aU;
    b272:	bf 40 4a aa 	mov	#-21942,212(r15);#0xaa4a, 0x00d4(r15)
    b276:	d4 00 
    b278:	bf 40 d8 4e 	mov	#20184,	214(r15);#0x4ed8, 0x00d6(r15)
    b27c:	d6 00 
  p211[2U] = (uint32_t)0x5b9cca4fU;
    b27e:	bf 40 4f ca 	mov	#-13745,216(r15);#0xca4f, 0x00d8(r15)
    b282:	d8 00 
    b284:	bf 40 9c 5b 	mov	#23452,	218(r15);#0x5b9c, 0x00da(r15)
    b288:	da 00 
  p211[3U] = (uint32_t)0x682e6ff3U;
    b28a:	bf 40 f3 6f 	mov	#28659,	220(r15);#0x6ff3, 0x00dc(r15)
    b28e:	dc 00 
    b290:	bf 40 2e 68 	mov	#26670,	222(r15);#0x682e, 0x00de(r15)
    b294:	de 00 
  uint32_t *p111 = p210;
  uint32_t *p212 = p210 + (uint32_t)4U;
  p111[0U] = (uint32_t)0x748f82eeU;
    b296:	bf 40 ee 82 	mov	#-32018,224(r15);#0x82ee, 0x00e0(r15)
    b29a:	e0 00 
    b29c:	bf 40 8f 74 	mov	#29839,	226(r15);#0x748f, 0x00e2(r15)
    b2a0:	e2 00 
  p111[1U] = (uint32_t)0x78a5636fU;
    b2a2:	bf 40 6f 63 	mov	#25455,	228(r15);#0x636f, 0x00e4(r15)
    b2a6:	e4 00 
    b2a8:	bf 40 a5 78 	mov	#30885,	230(r15);#0x78a5, 0x00e6(r15)
    b2ac:	e6 00 
  p111[2U] = (uint32_t)0x84c87814U;
    b2ae:	bf 40 14 78 	mov	#30740,	232(r15);#0x7814, 0x00e8(r15)
    b2b2:	e8 00 
    b2b4:	bf 40 c8 84 	mov	#-31544,234(r15);#0x84c8, 0x00ea(r15)
    b2b8:	ea 00 
  p111[3U] = (uint32_t)0x8cc70208U;
    b2ba:	bf 40 08 02 	mov	#520,	236(r15);#0x0208, 0x00ec(r15)
    b2be:	ec 00 
    b2c0:	bf 40 c7 8c 	mov	#-29497,238(r15);#0x8cc7, 0x00ee(r15)
    b2c4:	ee 00 
  p212[0U] = (uint32_t)0x90befffaU;
    b2c6:	bf 40 fa ff 	mov	#-6,	240(r15);#0xfffa, 0x00f0(r15)
    b2ca:	f0 00 
    b2cc:	bf 40 be 90 	mov	#-28482,242(r15);#0x90be, 0x00f2(r15)
    b2d0:	f2 00 
  p212[1U] = (uint32_t)0xa4506cebU;
    b2d2:	bf 40 eb 6c 	mov	#27883,	244(r15);#0x6ceb, 0x00f4(r15)
    b2d6:	f4 00 
    b2d8:	bf 40 50 a4 	mov	#-23472,246(r15);#0xa450, 0x00f6(r15)
    b2dc:	f6 00 
  p212[2U] = (uint32_t)0xbef9a3f7U;
    b2de:	bf 40 f7 a3 	mov	#-23561,248(r15);#0xa3f7, 0x00f8(r15)
    b2e2:	f8 00 
    b2e4:	bf 40 f9 be 	mov	#-16647,250(r15);#0xbef9, 0x00fa(r15)
    b2e8:	fa 00 
  p212[3U] = (uint32_t)0xc67178f2U;
    b2ea:	bf 40 f2 78 	mov	#30962,	252(r15);#0x78f2, 0x00fc(r15)
    b2ee:	fc 00 
    b2f0:	bf 40 71 c6 	mov	#-14735,254(r15);#0xc671, 0x00fe(r15)
    b2f4:	fe 00 
  uint32_t *p112 = h_01;
  uint32_t *p2 = h_01 + (uint32_t)4U;
  p112[0U] = (uint32_t)0x6a09e667U;
    b2f6:	bf 40 67 e6 	mov	#-6553,	512(r15);#0xe667, 0x0200(r15)
    b2fa:	00 02 
    b2fc:	bf 40 09 6a 	mov	#27145,	514(r15);#0x6a09, 0x0202(r15)
    b300:	02 02 
  p112[1U] = (uint32_t)0xbb67ae85U;
    b302:	bf 40 85 ae 	mov	#-20859,516(r15);#0xae85, 0x0204(r15)
    b306:	04 02 
    b308:	bf 40 67 bb 	mov	#-17561,518(r15);#0xbb67, 0x0206(r15)
    b30c:	06 02 
  p112[2U] = (uint32_t)0x3c6ef372U;
    b30e:	bf 40 72 f3 	mov	#-3214,	520(r15);#0xf372, 0x0208(r15)
    b312:	08 02 
    b314:	bf 40 6e 3c 	mov	#15470,	522(r15);#0x3c6e, 0x020a(r15)
    b318:	0a 02 
  p112[3U] = (uint32_t)0xa54ff53aU;
    b31a:	bf 40 3a f5 	mov	#-2758,	524(r15);#0xf53a, 0x020c(r15)
    b31e:	0c 02 
    b320:	bf 40 4f a5 	mov	#-23217,526(r15);#0xa54f, 0x020e(r15)
    b324:	0e 02 
  p2[0U] = (uint32_t)0x510e527fU;
    b326:	bf 40 7f 52 	mov	#21119,	528(r15);#0x527f, 0x0210(r15)
    b32a:	10 02 
    b32c:	bf 40 0e 51 	mov	#20750,	530(r15);#0x510e, 0x0212(r15)
    b330:	12 02 
  p2[1U] = (uint32_t)0x9b05688cU;
    b332:	bf 40 8c 68 	mov	#26764,	532(r15);#0x688c, 0x0214(r15)
    b336:	14 02 
    b338:	bf 40 05 9b 	mov	#-25851,534(r15);#0x9b05, 0x0216(r15)
    b33c:	16 02 
  p2[2U] = (uint32_t)0x1f83d9abU;
    b33e:	bf 40 ab d9 	mov	#-9813,	536(r15);#0xd9ab, 0x0218(r15)
    b342:	18 02 
    b344:	bf 40 83 1f 	mov	#8067,	538(r15);#0x1f83, 0x021a(r15)
    b348:	1a 02 
  p2[3U] = (uint32_t)0x5be0cd19U;
    b34a:	bf 40 19 cd 	mov	#-13031,540(r15);#0xcd19, 0x021c(r15)
    b34e:	1c 02 
    b350:	bf 40 e0 5b 	mov	#23520,	542(r15);#0x5be0, 0x021e(r15)
    b354:	1e 02 
}
    b356:	30 41       	ret			

0000b358 <Hacl_Impl_HMAC_SHA2_256_xor_bytes_inplace>:
  Hacl_Impl_SHA2_256_update_last(state, input_last, r);
  Hacl_Impl_SHA2_256_finish(state, hash1);
}

static void Hacl_Impl_HMAC_SHA2_256_xor_bytes_inplace(uint8_t *a, uint8_t *b, uint32_t len)
{
    b358:	0b 12       	push	r11		
    b35a:	0a 12       	push	r10		
  for (uint32_t i = (uint32_t)0U; i < len; i = i + (uint32_t)1U)
    b35c:	0c 93       	tst	r12		
    b35e:	02 20       	jnz	$+6      	;abs 0xb364
    b360:	0d 93       	tst	r13		
    b362:	0b 24       	jz	$+24     	;abs 0xb37a
    b364:	0a 43       	clr	r10		
    b366:	0b 43       	clr	r11		
  {
    uint8_t xi = a[i];
    uint8_t yi = b[i];
    a[i] = xi ^ yi;
    b368:	ff ee 00 00 	xor.b	@r14+,	0(r15)	;0x0000(r15)
  Hacl_Impl_SHA2_256_finish(state, hash1);
}

static void Hacl_Impl_HMAC_SHA2_256_xor_bytes_inplace(uint8_t *a, uint8_t *b, uint32_t len)
{
  for (uint32_t i = (uint32_t)0U; i < len; i = i + (uint32_t)1U)
    b36c:	1a 53       	inc	r10		
    b36e:	0b 63       	adc	r11		
    b370:	1f 53       	inc	r15		
    b372:	0a 9c       	cmp	r12,	r10	
    b374:	f9 23       	jnz	$-12     	;abs 0xb368
    b376:	0b 9d       	cmp	r13,	r11	
    b378:	f7 23       	jnz	$-16     	;abs 0xb368
  {
    uint8_t xi = a[i];
    uint8_t yi = b[i];
    a[i] = xi ^ yi;
  }
}
    b37a:	3a 41       	pop	r10		
    b37c:	3b 41       	pop	r11		
    b37e:	30 41       	ret			

0000b380 <Hacl_Impl_SHA2_256_update>:
  p2[2U] = (uint32_t)0x1f83d9abU;
  p2[3U] = (uint32_t)0x5be0cd19U;
}

static void Hacl_Impl_SHA2_256_update(uint32_t *state, uint8_t *data)
{
    b380:	0b 12       	push	r11		
    b382:	0a 12       	push	r10		
    b384:	09 12       	push	r9		
    b386:	08 12       	push	r8		
    b388:	07 12       	push	r7		
    b38a:	06 12       	push	r6		
    b38c:	05 12       	push	r5		
    b38e:	04 12       	push	r4		
    b390:	31 50 64 ff 	add	#-156,	r1	;#0xff64
    b394:	81 4f 98 00 	mov	r15,	152(r1)	;0x0098(r1)
    b398:	0a 4e       	mov	r14,	r10	
  uint32_t data_w[16U] = { 0U };
    b39a:	3d 40 40 00 	mov	#64,	r13	;#0x0040
    b39e:	0e 43       	clr	r14		
    b3a0:	0f 41       	mov	r1,	r15	
    b3a2:	b0 12 a8 c0 	call	#0xc0a8	
  p2[1U] = (uint32_t)0x9b05688cU;
  p2[2U] = (uint32_t)0x1f83d9abU;
  p2[3U] = (uint32_t)0x5be0cd19U;
}

static void Hacl_Impl_SHA2_256_update(uint32_t *state, uint8_t *data)
    b3a6:	04 41       	mov	r1,	r4	
    b3a8:	34 50 40 00 	add	#64,	r4	;#0x0040
    b3ac:	05 41       	mov	r1,	r5	
    b3ae:	0e 4a       	mov	r10,	r14	
    b3b0:	0e 81       	sub	r1,	r14	
  return x;
}

inline static uint32_t load32(uint8_t *b) {
  uint32_t x;
  memcpy(&x, b, 4);
    b3b2:	81 4e 68 00 	mov	r14,	104(r1)	;0x0068(r1)
    b3b6:	1f 41 68 00 	mov	104(r1),r15	;0x0068(r1)
    b3ba:	0f 55       	add	r5,	r15	
    b3bc:	f1 4f 60 00 	mov.b	@r15+,	96(r1)	;0x0060(r1)
    b3c0:	f1 4f 61 00 	mov.b	@r15+,	97(r1)	;0x0061(r1)
    b3c4:	f1 4f 62 00 	mov.b	@r15+,	98(r1)	;0x0062(r1)
    b3c8:	e1 4f 63 00 	mov.b	@r15,	99(r1)	;0x0063(r1)
  return x;
    b3cc:	1e 41 62 00 	mov	98(r1),	r14	;0x0062(r1)
Hacl_Hash_Lib_LoadStore_uint32s_from_be_bytes(uint32_t *output, uint8_t *input, uint32_t len)
{
  for (uint32_t i = (uint32_t)0U; i < len; i = i + (uint32_t)1U)
  {
    uint8_t *x0 = input + (uint32_t)4U * i;
    uint32_t inputi = load32_be(x0);
    b3d0:	5f 41 60 00 	mov.b	96(r1),	r15	;0x0060(r1)
    b3d4:	81 43 64 00 	mov	#0,	100(r1)	;r3 As==00, 0x0064(r1)
    b3d8:	8f 10       	swpb	r15		
    b3da:	81 4f 66 00 	mov	r15,	102(r1)	;0x0066(r1)
    b3de:	0f 4e       	mov	r14,	r15	
    b3e0:	8f 10       	swpb	r15		
    b3e2:	46 4f       	mov.b	r15,	r6	
    b3e4:	07 43       	clr	r7		
    b3e6:	18 41 64 00 	mov	100(r1),r8	;0x0064(r1)
    b3ea:	19 41 66 00 	mov	102(r1),r9	;0x0066(r1)
    b3ee:	08 d6       	bis	r6,	r8	
    b3f0:	09 d7       	bis	r7,	r9	
    b3f2:	1c 41 60 00 	mov	96(r1),	r12	;0x0060(r1)
    b3f6:	0d 4e       	mov	r14,	r13	
    b3f8:	8c 10       	swpb	r12		
    b3fa:	8d 10       	swpb	r13		
    b3fc:	4c ed       	xor.b	r13,	r12	
    b3fe:	0c ed       	xor	r13,	r12	
    b400:	4d 4d       	mov.b	r13,	r13	
    b402:	3c f0 00 ff 	and	#-256,	r12	;#0xff00
    b406:	0d f3       	and	#0,	r13	;r3 As==00
    b408:	08 dc       	bis	r12,	r8	
    b40a:	09 dd       	bis	r13,	r9	
    b40c:	1a 41 60 00 	mov	96(r1),	r10	;0x0060(r1)
    b410:	0b 4e       	mov	r14,	r11	
    b412:	4b ea       	xor.b	r10,	r11	
    b414:	0b ea       	xor	r10,	r11	
    b416:	8b 10       	swpb	r11		
    b418:	4a 4a       	mov.b	r10,	r10	
    b41a:	8a 10       	swpb	r10		
    b41c:	0c 4a       	mov	r10,	r12	
    b41e:	0d 4b       	mov	r11,	r13	
    b420:	0c f3       	and	#0,	r12	;r3 As==00
    b422:	3d f0 ff 00 	and	#255,	r13	;#0x00ff
    b426:	0a 48       	mov	r8,	r10	
    b428:	0b 49       	mov	r9,	r11	
    b42a:	0a dc       	bis	r12,	r10	
    b42c:	0b dd       	bis	r13,	r11	
    b42e:	85 4a 00 00 	mov	r10,	0(r5)	;0x0000(r5)
    b432:	85 4b 02 00 	mov	r11,	2(r5)	;0x0002(r5)
    output[i] = inputi;
    b436:	25 52       	add	#4,	r5	;r2 As==10
#include "Hacl_HMAC_SHA2_256.h"

static void
Hacl_Hash_Lib_LoadStore_uint32s_from_be_bytes(uint32_t *output, uint8_t *input, uint32_t len)
{
  for (uint32_t i = (uint32_t)0U; i < len; i = i + (uint32_t)1U)
    b438:	05 94       	cmp	r4,	r5	
    b43a:	bd 23       	jnz	$-132    	;abs 0xb3b6

static void Hacl_Impl_SHA2_256_update(uint32_t *state, uint8_t *data)
{
  uint32_t data_w[16U] = { 0U };
  Hacl_Hash_Lib_LoadStore_uint32s_from_be_bytes(data_w, data, (uint32_t)16U);
  uint32_t *hash_w = state + (uint32_t)128U;
    b43c:	1b 41 98 00 	mov	152(r1),r11	;0x0098(r1)
    b440:	3b 50 00 02 	add	#512,	r11	;#0x0200
    b444:	81 4b 9a 00 	mov	r11,	154(r1)	;0x009a(r1)
    b448:	0c 41       	mov	r1,	r12	
  uint32_t *ws_w = state + (uint32_t)64U;
    b44a:	1a 41 98 00 	mov	152(r1),r10	;0x0098(r1)
    b44e:	3a 50 00 01 	add	#256,	r10	;#0x0100
    b452:	81 4a 6c 00 	mov	r10,	108(r1)	;0x006c(r1)
    b456:	0d 4a       	mov	r10,	r13	
  uint32_t *k_w = state;
  uint32_t *counter_w = state + (uint32_t)136U;
  for (uint32_t i = (uint32_t)0U; i < (uint32_t)16U; i = i + (uint32_t)1U)
  {
    uint32_t b = data_w[i];
    ws_w[i] = b;
    b458:	bd 4c 00 00 	mov	@r12+,	0(r13)	;0x0000(r13)
    b45c:	bd 4c 02 00 	mov	@r12+,	2(r13)	;0x0002(r13)
    b460:	2d 52       	add	#4,	r13	;r2 As==10
  Hacl_Hash_Lib_LoadStore_uint32s_from_be_bytes(data_w, data, (uint32_t)16U);
  uint32_t *hash_w = state + (uint32_t)128U;
  uint32_t *ws_w = state + (uint32_t)64U;
  uint32_t *k_w = state;
  uint32_t *counter_w = state + (uint32_t)136U;
  for (uint32_t i = (uint32_t)0U; i < (uint32_t)16U; i = i + (uint32_t)1U)
    b462:	0c 94       	cmp	r4,	r12	
    b464:	f9 23       	jnz	$-12     	;abs 0xb458
    b466:	1f 41 98 00 	mov	152(r1),r15	;0x0098(r1)
    b46a:	0e 43       	clr	r14		
    b46c:	81 4e 68 00 	mov	r14,	104(r1)	;0x0068(r1)
    ws_w[i] = b;
  }
  for (uint32_t i = (uint32_t)16U; i < (uint32_t)64U; i = i + (uint32_t)1U)
  {
    uint32_t t16 = ws_w[i - (uint32_t)16U];
    uint32_t t15 = ws_w[i - (uint32_t)15U];
    b470:	1e 4f 06 01 	mov	262(r15),r14	;0x0106(r15)
    uint32_t t7 = ws_w[i - (uint32_t)7U];
    uint32_t t2 = ws_w[i - (uint32_t)2U];
    b474:	16 4f 38 01 	mov	312(r15),r6	;0x0138(r15)
    b478:	17 4f 3a 01 	mov	314(r15),r7	;0x013a(r15)
    ws_w[i] =
      ((t2 >> (uint32_t)17U | t2 << ((uint32_t)32U - (uint32_t)17U))
      ^ ((t2 >> (uint32_t)19U | t2 << ((uint32_t)32U - (uint32_t)19U)) ^ t2 >> (uint32_t)10U))
      +
    b47c:	18 4f 24 01 	mov	292(r15),r8	;0x0124(r15)
    b480:	19 4f 26 01 	mov	294(r15),r9	;0x0126(r15)
    b484:	18 5f 00 01 	add	256(r15),r8	;0x0100(r15)
    b488:	19 6f 02 01 	addc	258(r15),r9	;0x0102(r15)
    uint32_t t15 = ws_w[i - (uint32_t)15U];
    uint32_t t7 = ws_w[i - (uint32_t)7U];
    uint32_t t2 = ws_w[i - (uint32_t)2U];
    ws_w[i] =
      ((t2 >> (uint32_t)17U | t2 << ((uint32_t)32U - (uint32_t)17U))
      ^ ((t2 >> (uint32_t)19U | t2 << ((uint32_t)32U - (uint32_t)19U)) ^ t2 >> (uint32_t)10U))
    b48c:	0a 46       	mov	r6,	r10	
    b48e:	12 c3       	clrc			
    b490:	0a 10       	rrc	r10		
    b492:	12 c3       	clrc			
    b494:	0a 10       	rrc	r10		
    b496:	12 c3       	clrc			
    b498:	0a 10       	rrc	r10		
    b49a:	4d 47       	mov.b	r7,	r13	
    b49c:	8d 10       	swpb	r13		
    b49e:	0d 5d       	rla	r13		
    b4a0:	0d 5d       	rla	r13		
    b4a2:	0d 5d       	rla	r13		
    b4a4:	0d 5d       	rla	r13		
    b4a6:	0d 5d       	rla	r13		
    b4a8:	0a dd       	bis	r13,	r10	
    b4aa:	81 4a 70 00 	mov	r10,	112(r1)	;0x0070(r1)
    b4ae:	0a 47       	mov	r7,	r10	
    b4b0:	12 c3       	clrc			
    b4b2:	0a 10       	rrc	r10		
    b4b4:	12 c3       	clrc			
    b4b6:	0a 10       	rrc	r10		
    b4b8:	12 c3       	clrc			
    b4ba:	0a 10       	rrc	r10		
    b4bc:	4d 46       	mov.b	r6,	r13	
    b4be:	8d 10       	swpb	r13		
    b4c0:	0d 5d       	rla	r13		
    b4c2:	0d 5d       	rla	r13		
    b4c4:	0d 5d       	rla	r13		
    b4c6:	0d 5d       	rla	r13		
    b4c8:	0d 5d       	rla	r13		
    b4ca:	0a dd       	bis	r13,	r10	
    b4cc:	81 4a 6e 00 	mov	r10,	110(r1)	;0x006e(r1)
    uint32_t t16 = ws_w[i - (uint32_t)16U];
    uint32_t t15 = ws_w[i - (uint32_t)15U];
    uint32_t t7 = ws_w[i - (uint32_t)7U];
    uint32_t t2 = ws_w[i - (uint32_t)2U];
    ws_w[i] =
      ((t2 >> (uint32_t)17U | t2 << ((uint32_t)32U - (uint32_t)17U))
    b4d0:	0a 46       	mov	r6,	r10	
    b4d2:	12 c3       	clrc			
    b4d4:	0a 10       	rrc	r10		
    b4d6:	0d 47       	mov	r7,	r13	
    b4d8:	0d 11       	rra	r13		
    b4da:	0d 43       	clr	r13		
    b4dc:	0d 10       	rrc	r13		
    b4de:	0a dd       	bis	r13,	r10	
    b4e0:	81 4a 74 00 	mov	r10,	116(r1)	;0x0074(r1)
    b4e4:	0a 47       	mov	r7,	r10	
    b4e6:	12 c3       	clrc			
    b4e8:	0a 10       	rrc	r10		
    b4ea:	0d 46       	mov	r6,	r13	
    b4ec:	0d 11       	rra	r13		
    b4ee:	0d 43       	clr	r13		
    b4f0:	0d 10       	rrc	r13		
    b4f2:	0a dd       	bis	r13,	r10	
    b4f4:	81 4a 72 00 	mov	r10,	114(r1)	;0x0072(r1)
      ^ ((t2 >> (uint32_t)19U | t2 << ((uint32_t)32U - (uint32_t)19U)) ^ t2 >> (uint32_t)10U))
    b4f8:	1c 41 6e 00 	mov	110(r1),r12	;0x006e(r1)
    b4fc:	1d 41 70 00 	mov	112(r1),r13	;0x0070(r1)
    b500:	1c e1 72 00 	xor	114(r1),r12	;0x0072(r1)
    b504:	1d e1 74 00 	xor	116(r1),r13	;0x0074(r1)
    b508:	0a 46       	mov	r6,	r10	
    b50a:	0b 47       	mov	r7,	r11	
    b50c:	8a 10       	swpb	r10		
    b50e:	8b 10       	swpb	r11		
    b510:	4a eb       	xor.b	r11,	r10	
    b512:	0a eb       	xor	r11,	r10	
    b514:	4b 4b       	mov.b	r11,	r11	
    b516:	12 c3       	clrc			
    b518:	0b 10       	rrc	r11		
    b51a:	0a 10       	rrc	r10		
    b51c:	12 c3       	clrc			
    b51e:	0b 10       	rrc	r11		
    b520:	0a 10       	rrc	r10		
    b522:	0c ea       	xor	r10,	r12	
    b524:	0d eb       	xor	r11,	r13	
      +
        t7
        +
    b526:	06 48       	mov	r8,	r6	
    b528:	07 49       	mov	r9,	r7	
    b52a:	06 5c       	add	r12,	r6	
    b52c:	07 6d       	addc	r13,	r7	
          ((t15 >> (uint32_t)7U | t15 << ((uint32_t)32U - (uint32_t)7U))
          ^ ((t15 >> (uint32_t)18U | t15 << ((uint32_t)32U - (uint32_t)18U)) ^ t15 >> (uint32_t)3U))
    b52e:	1a 4f 04 01 	mov	260(r15),r10	;0x0104(r15)
    b532:	12 c3       	clrc			
    b534:	0a 10       	rrc	r10		
    b536:	12 c3       	clrc			
    b538:	0a 10       	rrc	r10		
    b53a:	4d 4e       	mov.b	r14,	r13	
    b53c:	8d 10       	swpb	r13		
    b53e:	0d 5d       	rla	r13		
    b540:	0d 5d       	rla	r13		
    b542:	0d 5d       	rla	r13		
    b544:	0d 5d       	rla	r13		
    b546:	0d 5d       	rla	r13		
    b548:	0d 5d       	rla	r13		
    b54a:	0a dd       	bis	r13,	r10	
    b54c:	81 4a 78 00 	mov	r10,	120(r1)	;0x0078(r1)
    b550:	0a 4e       	mov	r14,	r10	
    b552:	12 c3       	clrc			
    b554:	0a 10       	rrc	r10		
    b556:	12 c3       	clrc			
    b558:	0a 10       	rrc	r10		
    b55a:	5d 4f 04 01 	mov.b	260(r15),r13	;0x0104(r15)
    b55e:	8d 10       	swpb	r13		
    b560:	0d 5d       	rla	r13		
    b562:	0d 5d       	rla	r13		
    b564:	0d 5d       	rla	r13		
    b566:	0d 5d       	rla	r13		
    b568:	0d 5d       	rla	r13		
    b56a:	0d 5d       	rla	r13		
    b56c:	0a dd       	bis	r13,	r10	
    b56e:	81 4a 76 00 	mov	r10,	118(r1)	;0x0076(r1)
      ((t2 >> (uint32_t)17U | t2 << ((uint32_t)32U - (uint32_t)17U))
      ^ ((t2 >> (uint32_t)19U | t2 << ((uint32_t)32U - (uint32_t)19U)) ^ t2 >> (uint32_t)10U))
      +
        t7
        +
          ((t15 >> (uint32_t)7U | t15 << ((uint32_t)32U - (uint32_t)7U))
    b572:	5a 4f 04 01 	mov.b	260(r15),r10	;0x0104(r15)
    b576:	8a 10       	swpb	r10		
    b578:	0a 5a       	rla	r10		
    b57a:	0d 4e       	mov	r14,	r13	
    b57c:	12 c3       	clrc			
    b57e:	0d 10       	rrc	r13		
    b580:	12 c3       	clrc			
    b582:	0d 10       	rrc	r13		
    b584:	12 c3       	clrc			
    b586:	0d 10       	rrc	r13		
    b588:	12 c3       	clrc			
    b58a:	0d 10       	rrc	r13		
    b58c:	12 c3       	clrc			
    b58e:	0d 10       	rrc	r13		
    b590:	12 c3       	clrc			
    b592:	0d 10       	rrc	r13		
    b594:	12 c3       	clrc			
    b596:	0d 10       	rrc	r13		
    b598:	05 4a       	mov	r10,	r5	
    b59a:	05 dd       	bis	r13,	r5	
    b59c:	4a 4e       	mov.b	r14,	r10	
    b59e:	8a 10       	swpb	r10		
    b5a0:	0a 5a       	rla	r10		
    b5a2:	1d 4f 04 01 	mov	260(r15),r13	;0x0104(r15)
    b5a6:	12 c3       	clrc			
    b5a8:	0d 10       	rrc	r13		
    b5aa:	12 c3       	clrc			
    b5ac:	0d 10       	rrc	r13		
    b5ae:	12 c3       	clrc			
    b5b0:	0d 10       	rrc	r13		
    b5b2:	12 c3       	clrc			
    b5b4:	0d 10       	rrc	r13		
    b5b6:	12 c3       	clrc			
    b5b8:	0d 10       	rrc	r13		
    b5ba:	12 c3       	clrc			
    b5bc:	0d 10       	rrc	r13		
    b5be:	12 c3       	clrc			
    b5c0:	0d 10       	rrc	r13		
    b5c2:	04 4a       	mov	r10,	r4	
    b5c4:	04 dd       	bis	r13,	r4	
          ^ ((t15 >> (uint32_t)18U | t15 << ((uint32_t)32U - (uint32_t)18U)) ^ t15 >> (uint32_t)3U))
    b5c6:	18 41 76 00 	mov	118(r1),r8	;0x0076(r1)
    b5ca:	19 41 78 00 	mov	120(r1),r9	;0x0078(r1)
    b5ce:	08 e4       	xor	r4,	r8	
    b5d0:	09 e5       	xor	r5,	r9	
    b5d2:	1a 4f 04 01 	mov	260(r15),r10	;0x0104(r15)
    b5d6:	0b 4e       	mov	r14,	r11	
    b5d8:	12 c3       	clrc			
    b5da:	0b 10       	rrc	r11		
    b5dc:	0a 10       	rrc	r10		
    b5de:	12 c3       	clrc			
    b5e0:	0b 10       	rrc	r11		
    b5e2:	0a 10       	rrc	r10		
    b5e4:	12 c3       	clrc			
    b5e6:	0b 10       	rrc	r11		
    b5e8:	0a 10       	rrc	r10		
    b5ea:	0c 48       	mov	r8,	r12	
    b5ec:	0d 49       	mov	r9,	r13	
    b5ee:	0c ea       	xor	r10,	r12	
    b5f0:	0d eb       	xor	r11,	r13	
          + t16;
    b5f2:	0a 46       	mov	r6,	r10	
    b5f4:	0b 47       	mov	r7,	r11	
    b5f6:	0a 5c       	add	r12,	r10	
    b5f8:	0b 6d       	addc	r13,	r11	
    b5fa:	8f 4a 40 01 	mov	r10,	320(r15);0x0140(r15)
    b5fe:	8f 4b 42 01 	mov	r11,	322(r15);0x0142(r15)
  {
    uint32_t t16 = ws_w[i - (uint32_t)16U];
    uint32_t t15 = ws_w[i - (uint32_t)15U];
    uint32_t t7 = ws_w[i - (uint32_t)7U];
    uint32_t t2 = ws_w[i - (uint32_t)2U];
    ws_w[i] =
    b602:	a1 52 68 00 	add	#4,	104(r1)	;r2 As==10, 0x0068(r1)
    b606:	2f 52       	add	#4,	r15	;r2 As==10
  for (uint32_t i = (uint32_t)0U; i < (uint32_t)16U; i = i + (uint32_t)1U)
  {
    uint32_t b = data_w[i];
    ws_w[i] = b;
  }
  for (uint32_t i = (uint32_t)16U; i < (uint32_t)64U; i = i + (uint32_t)1U)
    b608:	b1 90 c0 00 	cmp	#192,	104(r1)	;#0x00c0, 0x0068(r1)
    b60c:	68 00 
    b60e:	30 23       	jnz	$-414    	;abs 0xb470
        +
          ((t15 >> (uint32_t)7U | t15 << ((uint32_t)32U - (uint32_t)7U))
          ^ ((t15 >> (uint32_t)18U | t15 << ((uint32_t)32U - (uint32_t)18U)) ^ t15 >> (uint32_t)3U))
          + t16;
  }
  uint32_t hash_0[8U] = { 0U };
    b610:	3d 40 20 00 	mov	#32,	r13	;#0x0020
    b614:	0e 43       	clr	r14		
    b616:	0f 41       	mov	r1,	r15	
    b618:	3f 50 40 00 	add	#64,	r15	;#0x0040
    b61c:	b0 12 a8 c0 	call	#0xc0a8	
  memcpy(hash_0, hash_w, (uint32_t)8U * sizeof hash_w[0U]);
    b620:	3d 40 20 00 	mov	#32,	r13	;#0x0020
    b624:	1e 41 9a 00 	mov	154(r1),r14	;0x009a(r1)
    b628:	0f 41       	mov	r1,	r15	
    b62a:	3f 50 40 00 	add	#64,	r15	;#0x0040
    b62e:	b0 12 ae bf 	call	#0xbfae	
    b632:	18 41 50 00 	mov	80(r1),	r8	;0x0050(r1)
    b636:	19 41 52 00 	mov	82(r1),	r9	;0x0052(r1)
  p2[1U] = (uint32_t)0x9b05688cU;
  p2[2U] = (uint32_t)0x1f83d9abU;
  p2[3U] = (uint32_t)0x5be0cd19U;
}

static void Hacl_Impl_SHA2_256_update(uint32_t *state, uint8_t *data)
    b63a:	1b 41 98 00 	mov	152(r1),r11	;0x0098(r1)
    b63e:	3b 50 00 02 	add	#512,	r11	;#0x0200
    b642:	81 4b 96 00 	mov	r11,	150(r1)	;0x0096(r1)
    b646:	04 3c       	jmp	$+10     	;abs 0xb650
    uint32_t *p2 = hash_0 + (uint32_t)4U;
    p1[0U] = x1;
    p1[1U] = a;
    p1[2U] = b;
    p1[3U] = c;
    p2[0U] = x5;
    b648:	18 41 92 00 	mov	146(r1),r8	;0x0092(r1)
    b64c:	19 41 94 00 	mov	148(r1),r9	;0x0094(r1)
  }
  uint32_t hash_0[8U] = { 0U };
  memcpy(hash_0, hash_w, (uint32_t)8U * sizeof hash_w[0U]);
  for (uint32_t i = (uint32_t)0U; i < (uint32_t)64U; i = i + (uint32_t)1U)
  {
    uint32_t a = hash_0[0U];
    b650:	16 41 40 00 	mov	64(r1),	r6	;0x0040(r1)
    b654:	17 41 42 00 	mov	66(r1),	r7	;0x0042(r1)
    uint32_t b = hash_0[1U];
    b658:	91 41 44 00 	mov	68(r1),	100(r1)	;0x0044(r1), 0x0064(r1)
    b65c:	64 00 
    b65e:	91 41 46 00 	mov	70(r1),	102(r1)	;0x0046(r1), 0x0066(r1)
    b662:	66 00 
    uint32_t c = hash_0[2U];
    b664:	91 41 48 00 	mov	72(r1),	104(r1)	;0x0048(r1), 0x0068(r1)
    b668:	68 00 
    b66a:	91 41 4a 00 	mov	74(r1),	106(r1)	;0x004a(r1), 0x006a(r1)
    b66e:	6a 00 
    uint32_t d = hash_0[3U];
    uint32_t e = hash_0[4U];
    uint32_t f1 = hash_0[5U];
    b670:	91 41 54 00 	mov	84(r1),	110(r1)	;0x0054(r1), 0x006e(r1)
    b674:	6e 00 
    b676:	91 41 56 00 	mov	86(r1),	112(r1)	;0x0056(r1), 0x0070(r1)
    b67a:	70 00 
    uint32_t g = hash_0[6U];
    b67c:	91 41 58 00 	mov	88(r1),	114(r1)	;0x0058(r1), 0x0072(r1)
    b680:	72 00 
    b682:	91 41 5a 00 	mov	90(r1),	116(r1)	;0x005a(r1), 0x0074(r1)
    b686:	74 00 
    uint32_t kt = k_w[i];
    uint32_t wst = ws_w[i];
    uint32_t
    t1 =
      h
      +
    b688:	1a 41 6c 00 	mov	108(r1),r10	;0x006c(r1)
    b68c:	1c 4a 00 ff 	mov	-256(r10),r12	;0xff00(r10)
    b690:	1d 4a 02 ff 	mov	-254(r10),r13	;0xff02(r10)
    b694:	2c 5a       	add	@r10,	r12	
    b696:	1d 6a 02 00 	addc	2(r10),	r13	;0x0002(r10)
        ((e >> (uint32_t)6U | e << ((uint32_t)32U - (uint32_t)6U))
        ^
          ((e >> (uint32_t)11U | e << ((uint32_t)32U - (uint32_t)11U))
          ^ (e >> (uint32_t)25U | e << ((uint32_t)32U - (uint32_t)25U))))
      + ((e & f1) ^ (~e & g))
    b69a:	0a 4c       	mov	r12,	r10	
    b69c:	0b 4d       	mov	r13,	r11	
    b69e:	1a 51 5c 00 	add	92(r1),	r10	;0x005c(r1)
    b6a2:	1b 61 5e 00 	addc	94(r1),	r11	;0x005e(r1)
    t1 =
      h
      +
        ((e >> (uint32_t)6U | e << ((uint32_t)32U - (uint32_t)6U))
        ^
          ((e >> (uint32_t)11U | e << ((uint32_t)32U - (uint32_t)11U))
    b6a6:	0d 49       	mov	r9,	r13	
    b6a8:	0d 5d       	rla	r13		
    b6aa:	0d 5d       	rla	r13		
    b6ac:	0d 5d       	rla	r13		
    b6ae:	0d 5d       	rla	r13		
    b6b0:	0d 5d       	rla	r13		
    b6b2:	0f 48       	mov	r8,	r15	
    b6b4:	8f 10       	swpb	r15		
    b6b6:	4f 4f       	mov.b	r15,	r15	
    b6b8:	12 c3       	clrc			
    b6ba:	0f 10       	rrc	r15		
    b6bc:	12 c3       	clrc			
    b6be:	0f 10       	rrc	r15		
    b6c0:	12 c3       	clrc			
    b6c2:	0f 10       	rrc	r15		
    b6c4:	0d df       	bis	r15,	r13	
    b6c6:	81 4d 7a 00 	mov	r13,	122(r1)	;0x007a(r1)
    b6ca:	0d 48       	mov	r8,	r13	
    b6cc:	0d 5d       	rla	r13		
    b6ce:	0d 5d       	rla	r13		
    b6d0:	0d 5d       	rla	r13		
    b6d2:	0d 5d       	rla	r13		
    b6d4:	0d 5d       	rla	r13		
    b6d6:	0f 49       	mov	r9,	r15	
    b6d8:	8f 10       	swpb	r15		
    b6da:	4f 4f       	mov.b	r15,	r15	
    b6dc:	12 c3       	clrc			
    b6de:	0f 10       	rrc	r15		
    b6e0:	12 c3       	clrc			
    b6e2:	0f 10       	rrc	r15		
    b6e4:	12 c3       	clrc			
    b6e6:	0f 10       	rrc	r15		
    b6e8:	0d df       	bis	r15,	r13	
    b6ea:	81 4d 7c 00 	mov	r13,	124(r1)	;0x007c(r1)
    uint32_t wst = ws_w[i];
    uint32_t
    t1 =
      h
      +
        ((e >> (uint32_t)6U | e << ((uint32_t)32U - (uint32_t)6U))
    b6ee:	4d 49       	mov.b	r9,	r13	
    b6f0:	8d 10       	swpb	r13		
    b6f2:	0d 5d       	rla	r13		
    b6f4:	0d 5d       	rla	r13		
    b6f6:	0f 48       	mov	r8,	r15	
    b6f8:	12 c3       	clrc			
    b6fa:	0f 10       	rrc	r15		
    b6fc:	12 c3       	clrc			
    b6fe:	0f 10       	rrc	r15		
    b700:	12 c3       	clrc			
    b702:	0f 10       	rrc	r15		
    b704:	12 c3       	clrc			
    b706:	0f 10       	rrc	r15		
    b708:	12 c3       	clrc			
    b70a:	0f 10       	rrc	r15		
    b70c:	12 c3       	clrc			
    b70e:	0f 10       	rrc	r15		
    b710:	0d df       	bis	r15,	r13	
    b712:	81 4d 7e 00 	mov	r13,	126(r1)	;0x007e(r1)
    b716:	4d 48       	mov.b	r8,	r13	
    b718:	8d 10       	swpb	r13		
    b71a:	0d 5d       	rla	r13		
    b71c:	0d 5d       	rla	r13		
    b71e:	0f 49       	mov	r9,	r15	
    b720:	12 c3       	clrc			
    b722:	0f 10       	rrc	r15		
    b724:	12 c3       	clrc			
    b726:	0f 10       	rrc	r15		
    b728:	12 c3       	clrc			
    b72a:	0f 10       	rrc	r15		
    b72c:	12 c3       	clrc			
    b72e:	0f 10       	rrc	r15		
    b730:	12 c3       	clrc			
    b732:	0f 10       	rrc	r15		
    b734:	12 c3       	clrc			
    b736:	0f 10       	rrc	r15		
    b738:	0d df       	bis	r15,	r13	
    b73a:	81 4d 80 00 	mov	r13,	128(r1)	;0x0080(r1)
        ^
          ((e >> (uint32_t)11U | e << ((uint32_t)32U - (uint32_t)11U))
          ^ (e >> (uint32_t)25U | e << ((uint32_t)32U - (uint32_t)25U))))
    b73e:	14 41 7a 00 	mov	122(r1),r4	;0x007a(r1)
    b742:	15 41 7c 00 	mov	124(r1),r5	;0x007c(r1)
    b746:	14 e1 7e 00 	xor	126(r1),r4	;0x007e(r1)
    b74a:	15 e1 80 00 	xor	128(r1),r5	;0x0080(r1)
    b74e:	0d 49       	mov	r9,	r13	
    b750:	8d 10       	swpb	r13		
    b752:	4d 4d       	mov.b	r13,	r13	
    b754:	12 c3       	clrc			
    b756:	0d 10       	rrc	r13		
    b758:	0f 48       	mov	r8,	r15	
    b75a:	0f 5f       	rla	r15		
    b75c:	0f 5f       	rla	r15		
    b75e:	0f 5f       	rla	r15		
    b760:	0f 5f       	rla	r15		
    b762:	0f 5f       	rla	r15		
    b764:	0f 5f       	rla	r15		
    b766:	0f 5f       	rla	r15		
    b768:	0d df       	bis	r15,	r13	
    b76a:	81 4d 82 00 	mov	r13,	130(r1)	;0x0082(r1)
    b76e:	0d 48       	mov	r8,	r13	
    b770:	8d 10       	swpb	r13		
    b772:	4d 4d       	mov.b	r13,	r13	
    b774:	12 c3       	clrc			
    b776:	0d 10       	rrc	r13		
    b778:	0f 49       	mov	r9,	r15	
    b77a:	0f 5f       	rla	r15		
    b77c:	0f 5f       	rla	r15		
    b77e:	0f 5f       	rla	r15		
    b780:	0f 5f       	rla	r15		
    b782:	0f 5f       	rla	r15		
    b784:	0f 5f       	rla	r15		
    b786:	0f 5f       	rla	r15		
    b788:	0d df       	bis	r15,	r13	
    b78a:	81 4d 84 00 	mov	r13,	132(r1)	;0x0084(r1)
    uint32_t
    t1 =
      h
      +
        ((e >> (uint32_t)6U | e << ((uint32_t)32U - (uint32_t)6U))
        ^
    b78e:	1c 41 82 00 	mov	130(r1),r12	;0x0082(r1)
    b792:	1d 41 84 00 	mov	132(r1),r13	;0x0084(r1)
    b796:	0c e4       	xor	r4,	r12	
    b798:	0d e5       	xor	r5,	r13	
          ((e >> (uint32_t)11U | e << ((uint32_t)32U - (uint32_t)11U))
          ^ (e >> (uint32_t)25U | e << ((uint32_t)32U - (uint32_t)25U))))
      + ((e & f1) ^ (~e & g))
      + kt
    b79a:	0a 5c       	add	r12,	r10	
    b79c:	0b 6d       	addc	r13,	r11	
      +
        ((e >> (uint32_t)6U | e << ((uint32_t)32U - (uint32_t)6U))
        ^
          ((e >> (uint32_t)11U | e << ((uint32_t)32U - (uint32_t)11U))
          ^ (e >> (uint32_t)25U | e << ((uint32_t)32U - (uint32_t)25U))))
      + ((e & f1) ^ (~e & g))
    b79e:	1e 41 72 00 	mov	114(r1),r14	;0x0072(r1)
    b7a2:	1f 41 74 00 	mov	116(r1),r15	;0x0074(r1)
    b7a6:	0e c8       	bic	r8,	r14	
    b7a8:	0f c9       	bic	r9,	r15	
    b7aa:	1c 41 6e 00 	mov	110(r1),r12	;0x006e(r1)
    b7ae:	1d 41 70 00 	mov	112(r1),r13	;0x0070(r1)
    b7b2:	0c f8       	and	r8,	r12	
    b7b4:	0d f9       	and	r9,	r13	
    b7b6:	0e ec       	xor	r12,	r14	
    b7b8:	0f ed       	xor	r13,	r15	
    uint32_t g = hash_0[6U];
    uint32_t h = hash_0[7U];
    uint32_t kt = k_w[i];
    uint32_t wst = ws_w[i];
    uint32_t
    t1 =
    b7ba:	0c 4a       	mov	r10,	r12	
    b7bc:	0d 4b       	mov	r11,	r13	
    b7be:	0c 5e       	add	r14,	r12	
    b7c0:	0d 6f       	addc	r15,	r13	
    b7c2:	81 4c 76 00 	mov	r12,	118(r1)	;0x0076(r1)
    b7c6:	81 4d 78 00 	mov	r13,	120(r1)	;0x0078(r1)
      ^
        ((a >> (uint32_t)13U | a << ((uint32_t)32U - (uint32_t)13U))
        ^ (a >> (uint32_t)22U | a << ((uint32_t)32U - (uint32_t)22U))))
      + ((a & b) ^ ((a & c) ^ (b & c)));
    uint32_t x1 = t1 + t2;
    uint32_t x5 = d + t1;
    b7ca:	1c 51 4c 00 	add	76(r1),	r12	;0x004c(r1)
    b7ce:	1d 61 4e 00 	addc	78(r1),	r13	;0x004e(r1)
    b7d2:	81 4c 92 00 	mov	r12,	146(r1)	;0x0092(r1)
    b7d6:	81 4d 94 00 	mov	r13,	148(r1)	;0x0094(r1)
    t2 =
      ((a >> (uint32_t)2U | a << ((uint32_t)32U - (uint32_t)2U))
      ^
        ((a >> (uint32_t)13U | a << ((uint32_t)32U - (uint32_t)13U))
        ^ (a >> (uint32_t)22U | a << ((uint32_t)32U - (uint32_t)22U))))
      + ((a & b) ^ ((a & c) ^ (b & c)));
    b7da:	1e 41 64 00 	mov	100(r1),r14	;0x0064(r1)
    b7de:	1f 41 66 00 	mov	102(r1),r15	;0x0066(r1)
    b7e2:	1e e1 68 00 	xor	104(r1),r14	;0x0068(r1)
    b7e6:	1f e1 6a 00 	xor	106(r1),r15	;0x006a(r1)
    b7ea:	0a 4e       	mov	r14,	r10	
    b7ec:	0b 4f       	mov	r15,	r11	
    b7ee:	0a f6       	and	r6,	r10	
    b7f0:	0b f7       	and	r7,	r11	
    b7f2:	1c 41 68 00 	mov	104(r1),r12	;0x0068(r1)
    b7f6:	1d 41 6a 00 	mov	106(r1),r13	;0x006a(r1)
    b7fa:	1c f1 64 00 	and	100(r1),r12	;0x0064(r1)
    b7fe:	1d f1 66 00 	and	102(r1),r13	;0x0066(r1)
    b802:	0a ec       	xor	r12,	r10	
    b804:	0b ed       	xor	r13,	r11	
      + wst;
    uint32_t
    t2 =
      ((a >> (uint32_t)2U | a << ((uint32_t)32U - (uint32_t)2U))
      ^
        ((a >> (uint32_t)13U | a << ((uint32_t)32U - (uint32_t)13U))
    b806:	0d 46       	mov	r6,	r13	
    b808:	0d 5d       	rla	r13		
    b80a:	0d 5d       	rla	r13		
    b80c:	0d 5d       	rla	r13		
    b80e:	0f 47       	mov	r7,	r15	
    b810:	8f 10       	swpb	r15		
    b812:	4f 4f       	mov.b	r15,	r15	
    b814:	12 c3       	clrc			
    b816:	0f 10       	rrc	r15		
    b818:	12 c3       	clrc			
    b81a:	0f 10       	rrc	r15		
    b81c:	12 c3       	clrc			
    b81e:	0f 10       	rrc	r15		
    b820:	12 c3       	clrc			
    b822:	0f 10       	rrc	r15		
    b824:	12 c3       	clrc			
    b826:	0f 10       	rrc	r15		
    b828:	0d df       	bis	r15,	r13	
    b82a:	81 4d 88 00 	mov	r13,	136(r1)	;0x0088(r1)
    b82e:	0d 47       	mov	r7,	r13	
    b830:	0d 5d       	rla	r13		
    b832:	0d 5d       	rla	r13		
    b834:	0d 5d       	rla	r13		
    b836:	0f 46       	mov	r6,	r15	
    b838:	8f 10       	swpb	r15		
    b83a:	4f 4f       	mov.b	r15,	r15	
    b83c:	12 c3       	clrc			
    b83e:	0f 10       	rrc	r15		
    b840:	12 c3       	clrc			
    b842:	0f 10       	rrc	r15		
    b844:	12 c3       	clrc			
    b846:	0f 10       	rrc	r15		
    b848:	12 c3       	clrc			
    b84a:	0f 10       	rrc	r15		
    b84c:	12 c3       	clrc			
    b84e:	0f 10       	rrc	r15		
    b850:	0d df       	bis	r15,	r13	
    b852:	81 4d 86 00 	mov	r13,	134(r1)	;0x0086(r1)
      + ((e & f1) ^ (~e & g))
      + kt
      + wst;
    uint32_t
    t2 =
      ((a >> (uint32_t)2U | a << ((uint32_t)32U - (uint32_t)2U))
    b856:	4d 46       	mov.b	r6,	r13	
    b858:	8d 10       	swpb	r13		
    b85a:	0d 5d       	rla	r13		
    b85c:	0d 5d       	rla	r13		
    b85e:	0d 5d       	rla	r13		
    b860:	0d 5d       	rla	r13		
    b862:	0d 5d       	rla	r13		
    b864:	0d 5d       	rla	r13		
    b866:	0f 47       	mov	r7,	r15	
    b868:	12 c3       	clrc			
    b86a:	0f 10       	rrc	r15		
    b86c:	12 c3       	clrc			
    b86e:	0f 10       	rrc	r15		
    b870:	0d df       	bis	r15,	r13	
    b872:	81 4d 8c 00 	mov	r13,	140(r1)	;0x008c(r1)
    b876:	4d 47       	mov.b	r7,	r13	
    b878:	8d 10       	swpb	r13		
    b87a:	0d 5d       	rla	r13		
    b87c:	0d 5d       	rla	r13		
    b87e:	0d 5d       	rla	r13		
    b880:	0d 5d       	rla	r13		
    b882:	0d 5d       	rla	r13		
    b884:	0d 5d       	rla	r13		
    b886:	0f 46       	mov	r6,	r15	
    b888:	12 c3       	clrc			
    b88a:	0f 10       	rrc	r15		
    b88c:	12 c3       	clrc			
    b88e:	0f 10       	rrc	r15		
    b890:	0d df       	bis	r15,	r13	
    b892:	81 4d 8a 00 	mov	r13,	138(r1)	;0x008a(r1)
      ^
        ((a >> (uint32_t)13U | a << ((uint32_t)32U - (uint32_t)13U))
        ^ (a >> (uint32_t)22U | a << ((uint32_t)32U - (uint32_t)22U))))
    b896:	14 41 86 00 	mov	134(r1),r4	;0x0086(r1)
    b89a:	15 41 88 00 	mov	136(r1),r5	;0x0088(r1)
    b89e:	14 e1 8a 00 	xor	138(r1),r4	;0x008a(r1)
    b8a2:	15 e1 8c 00 	xor	140(r1),r5	;0x008c(r1)
    b8a6:	0d 4f       	mov	r15,	r13	
    b8a8:	12 c3       	clrc			
    b8aa:	0d 10       	rrc	r13		
    b8ac:	12 c3       	clrc			
    b8ae:	0d 10       	rrc	r13		
    b8b0:	12 c3       	clrc			
    b8b2:	0d 10       	rrc	r13		
    b8b4:	12 c3       	clrc			
    b8b6:	0d 10       	rrc	r13		
    b8b8:	4f 47       	mov.b	r7,	r15	
    b8ba:	8f 10       	swpb	r15		
    b8bc:	0f 5f       	rla	r15		
    b8be:	0f 5f       	rla	r15		
    b8c0:	0d df       	bis	r15,	r13	
    b8c2:	81 4d 90 00 	mov	r13,	144(r1)	;0x0090(r1)
    b8c6:	0d 47       	mov	r7,	r13	
    b8c8:	12 c3       	clrc			
    b8ca:	0d 10       	rrc	r13		
    b8cc:	12 c3       	clrc			
    b8ce:	0d 10       	rrc	r13		
    b8d0:	12 c3       	clrc			
    b8d2:	0d 10       	rrc	r13		
    b8d4:	12 c3       	clrc			
    b8d6:	0d 10       	rrc	r13		
    b8d8:	12 c3       	clrc			
    b8da:	0d 10       	rrc	r13		
    b8dc:	12 c3       	clrc			
    b8de:	0d 10       	rrc	r13		
    b8e0:	4f 46       	mov.b	r6,	r15	
    b8e2:	8f 10       	swpb	r15		
    b8e4:	0f 5f       	rla	r15		
    b8e6:	0f 5f       	rla	r15		
    b8e8:	0d df       	bis	r15,	r13	
    b8ea:	81 4d 8e 00 	mov	r13,	142(r1)	;0x008e(r1)
      + kt
      + wst;
    uint32_t
    t2 =
      ((a >> (uint32_t)2U | a << ((uint32_t)32U - (uint32_t)2U))
      ^
    b8ee:	1c 41 8e 00 	mov	142(r1),r12	;0x008e(r1)
    b8f2:	1d 41 90 00 	mov	144(r1),r13	;0x0090(r1)
    b8f6:	0c e4       	xor	r4,	r12	
    b8f8:	0d e5       	xor	r5,	r13	
          ^ (e >> (uint32_t)25U | e << ((uint32_t)32U - (uint32_t)25U))))
      + ((e & f1) ^ (~e & g))
      + kt
      + wst;
    uint32_t
    t2 =
    b8fa:	0e 4a       	mov	r10,	r14	
    b8fc:	0f 4b       	mov	r11,	r15	
    b8fe:	0e 5c       	add	r12,	r14	
    b900:	0f 6d       	addc	r13,	r15	
      ((a >> (uint32_t)2U | a << ((uint32_t)32U - (uint32_t)2U))
      ^
        ((a >> (uint32_t)13U | a << ((uint32_t)32U - (uint32_t)13U))
        ^ (a >> (uint32_t)22U | a << ((uint32_t)32U - (uint32_t)22U))))
      + ((a & b) ^ ((a & c) ^ (b & c)));
    uint32_t x1 = t1 + t2;
    b902:	1a 41 76 00 	mov	118(r1),r10	;0x0076(r1)
    b906:	1b 41 78 00 	mov	120(r1),r11	;0x0078(r1)
    b90a:	0a 5e       	add	r14,	r10	
    b90c:	0b 6f       	addc	r15,	r11	
    b90e:	81 4a 40 00 	mov	r10,	64(r1)	;0x0040(r1)
    b912:	81 4b 42 00 	mov	r11,	66(r1)	;0x0042(r1)
    uint32_t x5 = d + t1;
    uint32_t *p1 = hash_0;
    uint32_t *p2 = hash_0 + (uint32_t)4U;
    p1[0U] = x1;
    p1[1U] = a;
    b916:	81 46 44 00 	mov	r6,	68(r1)	;0x0044(r1)
    b91a:	81 47 46 00 	mov	r7,	70(r1)	;0x0046(r1)
    p1[2U] = b;
    b91e:	91 41 64 00 	mov	100(r1),72(r1)	;0x0064(r1), 0x0048(r1)
    b922:	48 00 
    b924:	91 41 66 00 	mov	102(r1),74(r1)	;0x0066(r1), 0x004a(r1)
    b928:	4a 00 
    p1[3U] = c;
    b92a:	91 41 68 00 	mov	104(r1),76(r1)	;0x0068(r1), 0x004c(r1)
    b92e:	4c 00 
    b930:	91 41 6a 00 	mov	106(r1),78(r1)	;0x006a(r1), 0x004e(r1)
    b934:	4e 00 
    p2[0U] = x5;
    p2[1U] = e;
    b936:	81 48 54 00 	mov	r8,	84(r1)	;0x0054(r1)
    b93a:	81 49 56 00 	mov	r9,	86(r1)	;0x0056(r1)
    p2[2U] = f1;
    b93e:	91 41 6e 00 	mov	110(r1),88(r1)	;0x006e(r1), 0x0058(r1)
    b942:	58 00 
    b944:	91 41 70 00 	mov	112(r1),90(r1)	;0x0070(r1), 0x005a(r1)
    b948:	5a 00 
    p2[3U] = g;
    b94a:	91 41 72 00 	mov	114(r1),92(r1)	;0x0072(r1), 0x005c(r1)
    b94e:	5c 00 
    b950:	91 41 74 00 	mov	116(r1),94(r1)	;0x0074(r1), 0x005e(r1)
    b954:	5e 00 
    b956:	a1 52 6c 00 	add	#4,	108(r1)	;r2 As==10, 0x006c(r1)
          ^ ((t15 >> (uint32_t)18U | t15 << ((uint32_t)32U - (uint32_t)18U)) ^ t15 >> (uint32_t)3U))
          + t16;
  }
  uint32_t hash_0[8U] = { 0U };
  memcpy(hash_0, hash_w, (uint32_t)8U * sizeof hash_w[0U]);
  for (uint32_t i = (uint32_t)0U; i < (uint32_t)64U; i = i + (uint32_t)1U)
    b95a:	91 91 96 00 	cmp	150(r1),108(r1)	;0x0096(r1), 0x006c(r1)
    b95e:	6c 00 
    b960:	02 24       	jz	$+6      	;abs 0xb966
    b962:	30 40 48 b6 	br	#0xb648	
    b966:	91 41 92 00 	mov	146(r1),80(r1)	;0x0092(r1), 0x0050(r1)
    b96a:	50 00 
    b96c:	91 41 94 00 	mov	148(r1),82(r1)	;0x0094(r1), 0x0052(r1)
    b970:	52 00 
    b972:	1e 41 9a 00 	mov	154(r1),r14	;0x009a(r1)
    b976:	0d 41       	mov	r1,	r13	
    b978:	3d 50 40 00 	add	#64,	r13	;#0x0040
  p2[1U] = (uint32_t)0x9b05688cU;
  p2[2U] = (uint32_t)0x1f83d9abU;
  p2[3U] = (uint32_t)0x5be0cd19U;
}

static void Hacl_Impl_SHA2_256_update(uint32_t *state, uint8_t *data)
    b97c:	1c 41 98 00 	mov	152(r1),r12	;0x0098(r1)
    b980:	3c 50 20 02 	add	#544,	r12	;#0x0220
  }
  for (uint32_t i = (uint32_t)0U; i < (uint32_t)8U; i = i + (uint32_t)1U)
  {
    uint32_t xi = hash_w[i];
    uint32_t yi = hash_0[i];
    hash_w[i] = xi + yi;
    b984:	be 5d 00 00 	add	@r13+,	0(r14)	;0x0000(r14)
    b988:	be 6d 02 00 	addc	@r13+,	2(r14)	;0x0002(r14)
    b98c:	2e 52       	add	#4,	r14	;r2 As==10
    p2[0U] = x5;
    p2[1U] = e;
    p2[2U] = f1;
    p2[3U] = g;
  }
  for (uint32_t i = (uint32_t)0U; i < (uint32_t)8U; i = i + (uint32_t)1U)
    b98e:	0e 9c       	cmp	r12,	r14	
    b990:	f9 23       	jnz	$-12     	;abs 0xb984
    uint32_t yi = hash_0[i];
    hash_w[i] = xi + yi;
  }
  uint32_t c0 = counter_w[0U];
  uint32_t one1 = (uint32_t)1U;
  counter_w[0U] = c0 + one1;
    b992:	1b 41 98 00 	mov	152(r1),r11	;0x0098(r1)
    b996:	9b 53 20 02 	inc	544(r11)	;0x0220(r11)
    b99a:	8b 63 22 02 	adc	546(r11)	;0x0222(r11)
}
    b99e:	31 50 9c 00 	add	#156,	r1	;#0x009c
    b9a2:	34 41       	pop	r4		
    b9a4:	35 41       	pop	r5		
    b9a6:	36 41       	pop	r6		
    b9a8:	37 41       	pop	r7		
    b9aa:	38 41       	pop	r8		
    b9ac:	39 41       	pop	r9		
    b9ae:	3a 41       	pop	r10		
    b9b0:	3b 41       	pop	r11		
    b9b2:	30 41       	ret			

0000b9b4 <Hacl_Impl_SHA2_256_update_multi>:

static void Hacl_Impl_SHA2_256_update_multi(uint32_t *state, uint8_t *data, uint32_t n1)
{
    b9b4:	0b 12       	push	r11		
    b9b6:	0a 12       	push	r10		
    b9b8:	09 12       	push	r9		
    b9ba:	08 12       	push	r8		
    b9bc:	07 12       	push	r7		
    b9be:	06 12       	push	r6		
    b9c0:	07 4f       	mov	r15,	r7	
    b9c2:	08 4c       	mov	r12,	r8	
    b9c4:	06 4d       	mov	r13,	r6	
  for (uint32_t i = (uint32_t)0U; i < n1; i = i + (uint32_t)1U)
    b9c6:	0c 93       	tst	r12		
    b9c8:	02 20       	jnz	$+6      	;abs 0xb9ce
    b9ca:	0d 93       	tst	r13		
    b9cc:	0f 24       	jz	$+32     	;abs 0xb9ec
    b9ce:	09 4e       	mov	r14,	r9	
    b9d0:	0a 43       	clr	r10		
    b9d2:	0b 43       	clr	r11		
  {
    uint8_t *b = data + i * (uint32_t)64U;
    Hacl_Impl_SHA2_256_update(state, b);
    b9d4:	0e 49       	mov	r9,	r14	
    b9d6:	0f 47       	mov	r7,	r15	
    b9d8:	b0 12 80 b3 	call	#0xb380	
  counter_w[0U] = c0 + one1;
}

static void Hacl_Impl_SHA2_256_update_multi(uint32_t *state, uint8_t *data, uint32_t n1)
{
  for (uint32_t i = (uint32_t)0U; i < n1; i = i + (uint32_t)1U)
    b9dc:	1a 53       	inc	r10		
    b9de:	0b 63       	adc	r11		
    b9e0:	39 50 40 00 	add	#64,	r9	;#0x0040
    b9e4:	0a 98       	cmp	r8,	r10	
    b9e6:	f6 23       	jnz	$-18     	;abs 0xb9d4
    b9e8:	0b 96       	cmp	r6,	r11	
    b9ea:	f4 23       	jnz	$-22     	;abs 0xb9d4
  {
    uint8_t *b = data + i * (uint32_t)64U;
    Hacl_Impl_SHA2_256_update(state, b);
  }
}
    b9ec:	36 41       	pop	r6		
    b9ee:	37 41       	pop	r7		
    b9f0:	38 41       	pop	r8		
    b9f2:	39 41       	pop	r9		
    b9f4:	3a 41       	pop	r10		
    b9f6:	3b 41       	pop	r11		
    b9f8:	30 41       	ret			

0000b9fa <Hacl_Impl_SHA2_256_update_last>:

static void Hacl_Impl_SHA2_256_update_last(uint32_t *state, uint8_t *data, uint32_t len)
{
    b9fa:	0b 12       	push	r11		
    b9fc:	0a 12       	push	r10		
    b9fe:	09 12       	push	r9		
    ba00:	08 12       	push	r8		
    ba02:	07 12       	push	r7		
    ba04:	06 12       	push	r6		
    ba06:	05 12       	push	r5		
    ba08:	04 12       	push	r4		
    ba0a:	31 50 5e ff 	add	#-162,	r1	;#0xff5e
    ba0e:	81 4f 96 00 	mov	r15,	150(r1)	;0x0096(r1)
    ba12:	0a 4e       	mov	r14,	r10	
    ba14:	81 4c 90 00 	mov	r12,	144(r1)	;0x0090(r1)
    ba18:	81 4d 92 00 	mov	r13,	146(r1)	;0x0092(r1)
  uint8_t blocks[128U] = { 0U };
    ba1c:	3d 40 80 00 	mov	#128,	r13	;#0x0080
    ba20:	0e 43       	clr	r14		
    ba22:	0f 41       	mov	r1,	r15	
    ba24:	b0 12 a8 c0 	call	#0xc0a8	
  uint32_t nb;
  if (len < (uint32_t)56U)
    ba28:	91 93 92 00 	cmp	#1,	146(r1)	;r3 As==01, 0x0092(r1)
    ba2c:	0e 2c       	jc	$+30     	;abs 0xba4a
    ba2e:	b1 90 38 00 	cmp	#56,	144(r1)	;#0x0038, 0x0090(r1)
    ba32:	90 00 
    ba34:	0a 2c       	jc	$+22     	;abs 0xba4a
    nb = (uint32_t)1U;
    ba36:	91 43 9c 00 	mov	#1,	156(r1)	;r3 As==01, 0x009c(r1)
    ba3a:	81 43 9e 00 	mov	#0,	158(r1)	;r3 As==00, 0x009e(r1)
  else
    nb = (uint32_t)2U;
  uint8_t *final_blocks;
  if (len < (uint32_t)56U)
    final_blocks = blocks + (uint32_t)64U;
    ba3e:	08 41       	mov	r1,	r8	
    ba40:	38 50 40 00 	add	#64,	r8	;#0x0040
    ba44:	81 48 94 00 	mov	r8,	148(r1)	;0x0094(r1)
    ba48:	06 3c       	jmp	$+14     	;abs 0xba56
  uint8_t blocks[128U] = { 0U };
  uint32_t nb;
  if (len < (uint32_t)56U)
    nb = (uint32_t)1U;
  else
    nb = (uint32_t)2U;
    ba4a:	a1 43 9c 00 	mov	#2,	156(r1)	;r3 As==10, 0x009c(r1)
    ba4e:	81 43 9e 00 	mov	#0,	158(r1)	;r3 As==00, 0x009e(r1)
  uint8_t *final_blocks;
  if (len < (uint32_t)56U)
    final_blocks = blocks + (uint32_t)64U;
  else
    final_blocks = blocks;
    ba52:	81 41 94 00 	mov	r1,	148(r1)	;0x0094(r1)
  memcpy(final_blocks, data, len * sizeof data[0U]);
    ba56:	1d 41 90 00 	mov	144(r1),r13	;0x0090(r1)
    ba5a:	0e 4a       	mov	r10,	r14	
    ba5c:	1f 41 94 00 	mov	148(r1),r15	;0x0094(r1)
    ba60:	b0 12 ae bf 	call	#0xbfae	
  uint32_t n1 = state[136U];
  uint8_t *padding = final_blocks + len;
    ba64:	19 41 94 00 	mov	148(r1),r9	;0x0094(r1)
    ba68:	19 51 90 00 	add	144(r1),r9	;0x0090(r1)
    ba6c:	81 49 9a 00 	mov	r9,	154(r1)	;0x009a(r1)
  uint32_t
  pad0len = ((uint32_t)64U - (len + (uint32_t)8U + (uint32_t)1U) % (uint32_t)64U) % (uint32_t)64U;
  uint8_t *buf1 = padding;
  uint8_t *buf2 = padding + (uint32_t)1U + pad0len;
  uint64_t
  encodedlen = ((uint64_t)n1 * (uint64_t)(uint32_t)64U + (uint64_t)len) * (uint64_t)(uint32_t)8U;
    ba70:	14 41 90 00 	mov	144(r1),r4	;0x0090(r1)
    ba74:	15 41 92 00 	mov	146(r1),r5	;0x0092(r1)
    ba78:	06 43       	clr	r6		
    ba7a:	07 43       	clr	r7		
    ba7c:	1b 41 96 00 	mov	150(r1),r11	;0x0096(r1)
    ba80:	1f 4b 20 02 	mov	544(r11),r15	;0x0220(r11)
    ba84:	1d 4b 22 02 	mov	546(r11),r13	;0x0222(r11)
    ba88:	08 4f       	mov	r15,	r8	
    ba8a:	09 4d       	mov	r13,	r9	
    ba8c:	0a 43       	clr	r10		
    ba8e:	0b 43       	clr	r11		
    ba90:	08 58       	rla	r8		
    ba92:	09 69       	rlc	r9		
    ba94:	0a 6a       	rlc	r10		
    ba96:	0b 6b       	rlc	r11		
    ba98:	08 58       	rla	r8		
    ba9a:	09 69       	rlc	r9		
    ba9c:	0a 6a       	rlc	r10		
    ba9e:	0b 6b       	rlc	r11		
    baa0:	08 58       	rla	r8		
    baa2:	09 69       	rlc	r9		
    baa4:	0a 6a       	rlc	r10		
    baa6:	0b 6b       	rlc	r11		
    baa8:	08 58       	rla	r8		
    baaa:	09 69       	rlc	r9		
    baac:	0a 6a       	rlc	r10		
    baae:	0b 6b       	rlc	r11		
    bab0:	08 58       	rla	r8		
    bab2:	09 69       	rlc	r9		
    bab4:	0a 6a       	rlc	r10		
    bab6:	0b 6b       	rlc	r11		
    bab8:	08 58       	rla	r8		
    baba:	09 69       	rlc	r9		
    babc:	0a 6a       	rlc	r10		
    babe:	0b 6b       	rlc	r11		
    bac0:	0c 44       	mov	r4,	r12	
    bac2:	0d 45       	mov	r5,	r13	
    bac4:	0e 46       	mov	r6,	r14	
    bac6:	0f 47       	mov	r7,	r15	
    bac8:	0c 58       	add	r8,	r12	
    baca:	0d 69       	addc	r9,	r13	
    bacc:	0e 6a       	addc	r10,	r14	
    bace:	0f 6b       	addc	r11,	r15	
    bad0:	0c 5c       	rla	r12		
    bad2:	0d 6d       	rlc	r13		
    bad4:	0e 6e       	rlc	r14		
    bad6:	0f 6f       	rlc	r15		
    bad8:	0c 5c       	rla	r12		
    bada:	0d 6d       	rlc	r13		
    badc:	0e 6e       	rlc	r14		
    bade:	0f 6f       	rlc	r15		
    bae0:	0c 5c       	rla	r12		
    bae2:	0d 6d       	rlc	r13		
    bae4:	0e 6e       	rlc	r14		
    bae6:	0f 6f       	rlc	r15		
  buf1[0U] = (uint8_t)0x80U;
    bae8:	18 41 9a 00 	mov	154(r1),r8	;0x009a(r1)
    baec:	f8 40 80 ff 	mov.b	#-128,	0(r8)	;#0xff80, 0x0000(r8)
    baf0:	00 00 
  store64_be(buf2, encodedlen);
    baf2:	81 4c a0 00 	mov	r12,	160(r1)	;0x00a0(r1)
    baf6:	81 4d 98 00 	mov	r13,	152(r1)	;0x0098(r1)
    bafa:	48 4e       	mov.b	r14,	r8	
    bafc:	06 43       	clr	r6		
    bafe:	07 43       	clr	r7		
    bb00:	07 48       	mov	r8,	r7	
    bb02:	87 10       	swpb	r7		
    bb04:	04 4f       	mov	r15,	r4	
    bb06:	84 10       	swpb	r4		
    bb08:	4a 44       	mov.b	r4,	r10	
    bb0a:	0b 43       	clr	r11		
    bb0c:	0a d6       	bis	r6,	r10	
    bb0e:	0b d7       	bis	r7,	r11	
    bb10:	04 4e       	mov	r14,	r4	
    bb12:	05 4f       	mov	r15,	r5	
    bb14:	84 10       	swpb	r4		
    bb16:	85 10       	swpb	r5		
    bb18:	44 e5       	xor.b	r5,	r4	
    bb1a:	04 e5       	xor	r5,	r4	
    bb1c:	45 45       	mov.b	r5,	r5	
    bb1e:	06 44       	mov	r4,	r6	
    bb20:	07 45       	mov	r5,	r7	
    bb22:	36 f0 00 ff 	and	#-256,	r6	;#0xff00
    bb26:	07 f3       	and	#0,	r7	;r3 As==00
    bb28:	06 da       	bis	r10,	r6	
    bb2a:	07 db       	bis	r11,	r7	
    bb2c:	0b 4f       	mov	r15,	r11	
    bb2e:	4b ee       	xor.b	r14,	r11	
    bb30:	0b ee       	xor	r14,	r11	
    bb32:	8b 10       	swpb	r11		
    bb34:	4a 4e       	mov.b	r14,	r10	
    bb36:	8a 10       	swpb	r10		
    bb38:	0a f3       	and	#0,	r10	;r3 As==00
    bb3a:	3b f0 ff 00 	and	#255,	r11	;#0x00ff
    bb3e:	08 46       	mov	r6,	r8	
    bb40:	09 47       	mov	r7,	r9	
    bb42:	08 da       	bis	r10,	r8	
    bb44:	09 db       	bis	r11,	r9	
    bb46:	81 48 88 00 	mov	r8,	136(r1)	;0x0088(r1)
    bb4a:	81 49 8a 00 	mov	r9,	138(r1)	;0x008a(r1)
    bb4e:	81 43 8c 00 	mov	#0,	140(r1)	;r3 As==00, 0x008c(r1)
    bb52:	81 43 8e 00 	mov	#0,	142(r1)	;r3 As==00, 0x008e(r1)
    bb56:	58 41 a0 00 	mov.b	160(r1),r8	;0x00a0(r1)
    bb5a:	06 43       	clr	r6		
    bb5c:	07 43       	clr	r7		
    bb5e:	07 48       	mov	r8,	r7	
    bb60:	87 10       	swpb	r7		
    bb62:	08 4d       	mov	r13,	r8	
    bb64:	88 10       	swpb	r8		
    bb66:	4a 48       	mov.b	r8,	r10	
    bb68:	0b 43       	clr	r11		
    bb6a:	0a d6       	bis	r6,	r10	
    bb6c:	0b d7       	bis	r7,	r11	
    bb6e:	04 4c       	mov	r12,	r4	
    bb70:	05 4d       	mov	r13,	r5	
    bb72:	84 10       	swpb	r4		
    bb74:	85 10       	swpb	r5		
    bb76:	44 e5       	xor.b	r5,	r4	
    bb78:	04 e5       	xor	r5,	r4	
    bb7a:	45 45       	mov.b	r5,	r5	
    bb7c:	06 44       	mov	r4,	r6	
    bb7e:	07 45       	mov	r5,	r7	
    bb80:	36 f0 00 ff 	and	#-256,	r6	;#0xff00
    bb84:	07 f3       	and	#0,	r7	;r3 As==00
    bb86:	06 da       	bis	r10,	r6	
    bb88:	07 db       	bis	r11,	r7	
    bb8a:	0b 4d       	mov	r13,	r11	
    bb8c:	4b ec       	xor.b	r12,	r11	
    bb8e:	0b ec       	xor	r12,	r11	
    bb90:	8b 10       	swpb	r11		
    bb92:	4a 4c       	mov.b	r12,	r10	
    bb94:	8a 10       	swpb	r10		
    bb96:	08 4a       	mov	r10,	r8	
    bb98:	09 4b       	mov	r11,	r9	
    bb9a:	08 f3       	and	#0,	r8	;r3 As==00
    bb9c:	39 f0 ff 00 	and	#255,	r9	;#0x00ff
    bba0:	06 d8       	bis	r8,	r6	
    bba2:	07 d9       	bis	r9,	r7	
    bba4:	08 43       	clr	r8		
    bba6:	09 43       	clr	r9		
    bba8:	0a 43       	clr	r10		
    bbaa:	0b 43       	clr	r11		
    bbac:	09 43       	clr	r9		
    bbae:	0a 46       	mov	r6,	r10	
    bbb0:	0b 47       	mov	r7,	r11	
    bbb2:	1c 41 88 00 	mov	136(r1),r12	;0x0088(r1)
    bbb6:	1d 41 8a 00 	mov	138(r1),r13	;0x008a(r1)
    bbba:	1e 41 8c 00 	mov	140(r1),r14	;0x008c(r1)
    bbbe:	1f 41 8e 00 	mov	142(r1),r15	;0x008e(r1)
    bbc2:	0c d8       	bis	r8,	r12	
    bbc4:	0d d9       	bis	r9,	r13	
    bbc6:	0e da       	bis	r10,	r14	
    bbc8:	0f db       	bis	r11,	r15	
    bbca:	81 4c 80 00 	mov	r12,	128(r1)	;0x0080(r1)
    bbce:	81 4d 82 00 	mov	r13,	130(r1)	;0x0082(r1)
    bbd2:	81 4e 84 00 	mov	r14,	132(r1)	;0x0084(r1)
    bbd6:	81 4f 86 00 	mov	r15,	134(r1)	;0x0086(r1)
    final_blocks = blocks;
  memcpy(final_blocks, data, len * sizeof data[0U]);
  uint32_t n1 = state[136U];
  uint8_t *padding = final_blocks + len;
  uint32_t
  pad0len = ((uint32_t)64U - (len + (uint32_t)8U + (uint32_t)1U) % (uint32_t)64U) % (uint32_t)64U;
    bbda:	3a 40 f7 ff 	mov	#-9,	r10	;#0xfff7
    bbde:	3b 43       	mov	#-1,	r11	;r3 As==11
    bbe0:	1a 81 90 00 	sub	144(r1),r10	;0x0090(r1)
    bbe4:	1b 71 92 00 	subc	146(r1),r11	;0x0092(r1)
    bbe8:	3a f0 3f 00 	and	#63,	r10	;#0x003f
    bbec:	0b f3       	and	#0,	r11	;r3 As==00
  uint8_t *buf1 = padding;
  uint8_t *buf2 = padding + (uint32_t)1U + pad0len;
    bbee:	1a 53       	inc	r10		
    bbf0:	1d 41 9a 00 	mov	154(r1),r13	;0x009a(r1)
    bbf4:	0d 5a       	add	r10,	r13	

inline static void store16(uint8_t *b, uint16_t i) { memcpy(b, &i, 2); }

inline static void store32(uint8_t *b, uint32_t i) { memcpy(b, &i, 4); }

inline static void store64(uint8_t *b, uint64_t i) { memcpy(b, &i, 8); }
    bbf6:	dd 41 80 00 	mov.b	128(r1),0(r13)	;0x0080(r1), 0x0000(r13)
    bbfa:	00 00 
    bbfc:	1d 53       	inc	r13		
    bbfe:	dd 41 81 00 	mov.b	129(r1),0(r13)	;0x0081(r1), 0x0000(r13)
    bc02:	00 00 
    bc04:	1d 53       	inc	r13		
    bc06:	dd 41 82 00 	mov.b	130(r1),0(r13)	;0x0082(r1), 0x0000(r13)
    bc0a:	00 00 
    bc0c:	1d 53       	inc	r13		
    bc0e:	dd 41 83 00 	mov.b	131(r1),0(r13)	;0x0083(r1), 0x0000(r13)
    bc12:	00 00 
    bc14:	1d 53       	inc	r13		
    bc16:	dd 41 84 00 	mov.b	132(r1),0(r13)	;0x0084(r1), 0x0000(r13)
    bc1a:	00 00 
    bc1c:	1d 53       	inc	r13		
    bc1e:	dd 41 85 00 	mov.b	133(r1),0(r13)	;0x0085(r1), 0x0000(r13)
    bc22:	00 00 
    bc24:	1d 53       	inc	r13		
    bc26:	dd 41 86 00 	mov.b	134(r1),0(r13)	;0x0086(r1), 0x0000(r13)
    bc2a:	00 00 
    bc2c:	dd 41 87 00 	mov.b	135(r1),1(r13)	;0x0087(r1), 0x0001(r13)
    bc30:	01 00 
  uint64_t
  encodedlen = ((uint64_t)n1 * (uint64_t)(uint32_t)64U + (uint64_t)len) * (uint64_t)(uint32_t)8U;
  buf1[0U] = (uint8_t)0x80U;
  store64_be(buf2, encodedlen);
  Hacl_Impl_SHA2_256_update_multi(state, final_blocks, nb);
    bc32:	1c 41 9c 00 	mov	156(r1),r12	;0x009c(r1)
    bc36:	1d 41 9e 00 	mov	158(r1),r13	;0x009e(r1)
    bc3a:	1e 41 94 00 	mov	148(r1),r14	;0x0094(r1)
    bc3e:	1f 41 96 00 	mov	150(r1),r15	;0x0096(r1)
    bc42:	b0 12 b4 b9 	call	#0xb9b4	
}
    bc46:	31 50 a2 00 	add	#162,	r1	;#0x00a2
    bc4a:	34 41       	pop	r4		
    bc4c:	35 41       	pop	r5		
    bc4e:	36 41       	pop	r6		
    bc50:	37 41       	pop	r7		
    bc52:	38 41       	pop	r8		
    bc54:	39 41       	pop	r9		
    bc56:	3a 41       	pop	r10		
    bc58:	3b 41       	pop	r11		
    bc5a:	30 41       	ret			

0000bc5c <Hacl_Impl_SHA2_256_finish>:

static void Hacl_Impl_SHA2_256_finish(uint32_t *state, uint8_t *hash1)
{
    bc5c:	0b 12       	push	r11		
    bc5e:	0a 12       	push	r10		
    bc60:	09 12       	push	r9		
    bc62:	08 12       	push	r8		
    bc64:	07 12       	push	r7		
    bc66:	06 12       	push	r6		
    bc68:	05 12       	push	r5		
    bc6a:	04 12       	push	r4		
    bc6c:	31 50 f0 ff 	add	#-16,	r1	;#0xfff0
  uint32_t *hash_w = state + (uint32_t)128U;
    bc70:	06 4f       	mov	r15,	r6	
    bc72:	36 50 00 02 	add	#512,	r6	;#0x0200
  buf1[0U] = (uint8_t)0x80U;
  store64_be(buf2, encodedlen);
  Hacl_Impl_SHA2_256_update_multi(state, final_blocks, nb);
}

static void Hacl_Impl_SHA2_256_finish(uint32_t *state, uint8_t *hash1)
    bc76:	0d 4f       	mov	r15,	r13	
    bc78:	3d 50 20 02 	add	#544,	r13	;#0x0220
    bc7c:	81 4d 08 00 	mov	r13,	8(r1)	;0x0008(r1)
    bc80:	0e 8f       	sub	r15,	r14	
    bc82:	3e 50 00 fe 	add	#-512,	r14	;#0xfe00
    bc86:	81 4e 0a 00 	mov	r14,	10(r1)	;0x000a(r1)
  return x;
}

inline static void store16(uint8_t *b, uint16_t i) { memcpy(b, &i, 2); }

inline static void store32(uint8_t *b, uint32_t i) { memcpy(b, &i, 4); }
    bc8a:	1e 43       	mov	#1,	r14	;r3 As==01
    bc8c:	0e 51       	add	r1,	r14	
    bc8e:	1e 53       	inc	r14		
    bc90:	0f 4e       	mov	r14,	r15	
    bc92:	1f 53       	inc	r15		
    bc94:	81 4f 0c 00 	mov	r15,	12(r1)	;0x000c(r1)
    bc98:	81 4e 0e 00 	mov	r14,	14(r1)	;0x000e(r1)
static void
Hacl_Hash_Lib_LoadStore_uint32s_to_be_bytes(uint8_t *output, uint32_t *input, uint32_t len)
{
  for (uint32_t i = (uint32_t)0U; i < len; i = i + (uint32_t)1U)
  {
    uint32_t hd1 = input[i];
    bc9c:	2e 46       	mov	@r6,	r14	
    bc9e:	17 46 02 00 	mov	2(r6),	r7	;0x0002(r6)
    uint8_t *x0 = output + (uint32_t)4U * i;
    store32_be(x0, hd1);
    bca2:	4f 4e       	mov.b	r14,	r15	
    bca4:	81 43 04 00 	mov	#0,	4(r1)	;r3 As==00, 0x0004(r1)
    bca8:	8f 10       	swpb	r15		
    bcaa:	81 4f 06 00 	mov	r15,	6(r1)	;0x0006(r1)
    bcae:	0f 47       	mov	r7,	r15	
    bcb0:	8f 10       	swpb	r15		
    bcb2:	44 4f       	mov.b	r15,	r4	
    bcb4:	05 43       	clr	r5		
    bcb6:	18 41 04 00 	mov	4(r1),	r8	;0x0004(r1)
    bcba:	19 41 06 00 	mov	6(r1),	r9	;0x0006(r1)
    bcbe:	08 d4       	bis	r4,	r8	
    bcc0:	09 d5       	bis	r5,	r9	
    bcc2:	0c 4e       	mov	r14,	r12	
    bcc4:	0d 47       	mov	r7,	r13	
    bcc6:	8c 10       	swpb	r12		
    bcc8:	8d 10       	swpb	r13		
    bcca:	4c ed       	xor.b	r13,	r12	
    bccc:	0c ed       	xor	r13,	r12	
    bcce:	4d 4d       	mov.b	r13,	r13	
    bcd0:	3c f0 00 ff 	and	#-256,	r12	;#0xff00
    bcd4:	0d f3       	and	#0,	r13	;r3 As==00
    bcd6:	08 dc       	bis	r12,	r8	
    bcd8:	09 dd       	bis	r13,	r9	
    bcda:	0b 47       	mov	r7,	r11	
    bcdc:	4b ee       	xor.b	r14,	r11	
    bcde:	0b ee       	xor	r14,	r11	
    bce0:	8b 10       	swpb	r11		
    bce2:	4a 4e       	mov.b	r14,	r10	
    bce4:	8a 10       	swpb	r10		
    bce6:	0c 4a       	mov	r10,	r12	
    bce8:	0d 4b       	mov	r11,	r13	
    bcea:	0c f3       	and	#0,	r12	;r3 As==00
    bcec:	3d f0 ff 00 	and	#255,	r13	;#0x00ff
    bcf0:	0e 48       	mov	r8,	r14	
    bcf2:	0f 49       	mov	r9,	r15	
    bcf4:	0e dc       	bis	r12,	r14	
    bcf6:	0f dd       	bis	r13,	r15	
    bcf8:	81 4e 00 00 	mov	r14,	0(r1)	;0x0000(r1)
    bcfc:	81 4f 02 00 	mov	r15,	2(r1)	;0x0002(r1)
  buf1[0U] = (uint8_t)0x80U;
  store64_be(buf2, encodedlen);
  Hacl_Impl_SHA2_256_update_multi(state, final_blocks, nb);
}

static void Hacl_Impl_SHA2_256_finish(uint32_t *state, uint8_t *hash1)
    bd00:	1f 41 0a 00 	mov	10(r1),	r15	;0x000a(r1)
    bd04:	0f 56       	add	r6,	r15	
    bd06:	ef 41 00 00 	mov.b	@r1,	0(r15)	;0x0000(r15)
    bd0a:	1f 53       	inc	r15		
    bd0c:	df 41 01 00 	mov.b	1(r1),	0(r15)	;0x0001(r1), 0x0000(r15)
    bd10:	00 00 
    bd12:	1f 53       	inc	r15		
    bd14:	1d 41 0e 00 	mov	14(r1),	r13	;0x000e(r1)
    bd18:	ef 4d 00 00 	mov.b	@r13,	0(r15)	;0x0000(r15)
    bd1c:	1e 41 0c 00 	mov	12(r1),	r14	;0x000c(r1)
    bd20:	ef 4e 01 00 	mov.b	@r14,	1(r15)	;0x0001(r15)
    bd24:	26 52       	add	#4,	r6	;r2 As==10
}

static void
Hacl_Hash_Lib_LoadStore_uint32s_to_be_bytes(uint8_t *output, uint32_t *input, uint32_t len)
{
  for (uint32_t i = (uint32_t)0U; i < len; i = i + (uint32_t)1U)
    bd26:	16 91 08 00 	cmp	8(r1),	r6	;0x0008(r1)
    bd2a:	b8 23       	jnz	$-142    	;abs 0xbc9c

static void Hacl_Impl_SHA2_256_finish(uint32_t *state, uint8_t *hash1)
{
  uint32_t *hash_w = state + (uint32_t)128U;
  Hacl_Hash_Lib_LoadStore_uint32s_to_be_bytes(hash1, hash_w, (uint32_t)8U);
}
    bd2c:	31 50 10 00 	add	#16,	r1	;#0x0010
    bd30:	34 41       	pop	r4		
    bd32:	35 41       	pop	r5		
    bd34:	36 41       	pop	r6		
    bd36:	37 41       	pop	r7		
    bd38:	38 41       	pop	r8		
    bd3a:	39 41       	pop	r9		
    bd3c:	3a 41       	pop	r10		
    bd3e:	3b 41       	pop	r11		
    bd40:	30 41       	ret			

0000bd42 <Hacl_Impl_SHA2_256_hash>:

static void Hacl_Impl_SHA2_256_hash(uint8_t *hash1, uint8_t *input, uint32_t len)
{
    bd42:	0b 12       	push	r11		
    bd44:	0a 12       	push	r10		
    bd46:	09 12       	push	r9		
    bd48:	08 12       	push	r8		
    bd4a:	07 12       	push	r7		
    bd4c:	06 12       	push	r6		
    bd4e:	05 12       	push	r5		
    bd50:	31 50 dc fd 	add	#-548,	r1	;#0xfddc
    bd54:	06 4f       	mov	r15,	r6	
    bd56:	07 4e       	mov	r14,	r7	
    bd58:	08 4c       	mov	r12,	r8	
    bd5a:	09 4d       	mov	r13,	r9	
  uint32_t state[137U] = { 0U };
    bd5c:	3d 40 24 02 	mov	#548,	r13	;#0x0224
    bd60:	0e 43       	clr	r14		
    bd62:	0f 41       	mov	r1,	r15	
    bd64:	b0 12 a8 c0 	call	#0xc0a8	
  uint32_t n1 = len / (uint32_t)64U;
    bd68:	0a 48       	mov	r8,	r10	
    bd6a:	0b 49       	mov	r9,	r11	
    bd6c:	12 c3       	clrc			
    bd6e:	0b 10       	rrc	r11		
    bd70:	0a 10       	rrc	r10		
    bd72:	12 c3       	clrc			
    bd74:	0b 10       	rrc	r11		
    bd76:	0a 10       	rrc	r10		
    bd78:	12 c3       	clrc			
    bd7a:	0b 10       	rrc	r11		
    bd7c:	0a 10       	rrc	r10		
    bd7e:	12 c3       	clrc			
    bd80:	0b 10       	rrc	r11		
    bd82:	0a 10       	rrc	r10		
    bd84:	12 c3       	clrc			
    bd86:	0b 10       	rrc	r11		
    bd88:	0a 10       	rrc	r10		
    bd8a:	12 c3       	clrc			
    bd8c:	0b 10       	rrc	r11		
    bd8e:	0a 10       	rrc	r10		
  uint32_t r = len % (uint32_t)64U;
  uint8_t *input_blocks = input;
  uint8_t *input_last = input + n1 * (uint32_t)64U;
    bd90:	0d 4a       	mov	r10,	r13	
    bd92:	0d 5d       	rla	r13		
    bd94:	0d 5d       	rla	r13		
    bd96:	0d 5d       	rla	r13		
    bd98:	0d 5d       	rla	r13		
    bd9a:	0d 5d       	rla	r13		
    bd9c:	0d 5d       	rla	r13		
    bd9e:	05 47       	mov	r7,	r5	
    bda0:	05 5d       	add	r13,	r5	
  Hacl_Impl_SHA2_256_init(state);
    bda2:	0f 41       	mov	r1,	r15	
    bda4:	b0 12 f6 af 	call	#0xaff6	
  Hacl_Impl_SHA2_256_update_multi(state, input_blocks, n1);
    bda8:	0c 4a       	mov	r10,	r12	
    bdaa:	0d 4b       	mov	r11,	r13	
    bdac:	0e 47       	mov	r7,	r14	
    bdae:	0f 41       	mov	r1,	r15	
    bdb0:	b0 12 b4 b9 	call	#0xb9b4	
  Hacl_Impl_SHA2_256_update_last(state, input_last, r);
    bdb4:	0c 48       	mov	r8,	r12	
    bdb6:	0d 49       	mov	r9,	r13	
    bdb8:	3c f0 3f 00 	and	#63,	r12	;#0x003f
    bdbc:	0d f3       	and	#0,	r13	;r3 As==00
    bdbe:	0e 45       	mov	r5,	r14	
    bdc0:	0f 41       	mov	r1,	r15	
    bdc2:	b0 12 fa b9 	call	#0xb9fa	
  Hacl_Impl_SHA2_256_finish(state, hash1);
    bdc6:	0e 46       	mov	r6,	r14	
    bdc8:	0f 41       	mov	r1,	r15	
    bdca:	b0 12 5c bc 	call	#0xbc5c	
}
    bdce:	31 50 24 02 	add	#548,	r1	;#0x0224
    bdd2:	35 41       	pop	r5		
    bdd4:	36 41       	pop	r6		
    bdd6:	37 41       	pop	r7		
    bdd8:	38 41       	pop	r8		
    bdda:	39 41       	pop	r9		
    bddc:	3a 41       	pop	r10		
    bdde:	3b 41       	pop	r11		
    bde0:	30 41       	ret			

0000bde2 <Hacl_Impl_HMAC_SHA2_256_hmac_core>:
  }
}

static void
Hacl_Impl_HMAC_SHA2_256_hmac_core(uint8_t *mac, uint8_t *key, uint8_t *data, uint32_t len)
{
    bde2:	0b 12       	push	r11		
    bde4:	0a 12       	push	r10		
    bde6:	09 12       	push	r9		
    bde8:	08 12       	push	r8		
    bdea:	07 12       	push	r7		
    bdec:	06 12       	push	r6		
    bdee:	05 12       	push	r5		
    bdf0:	04 12       	push	r4		
    bdf2:	31 50 38 fb 	add	#-1224,	r1	;#0xfb38
    bdf6:	04 4f       	mov	r15,	r4	
    bdf8:	08 4e       	mov	r14,	r8	
    bdfa:	05 4d       	mov	r13,	r5	
    bdfc:	16 41 da 04 	mov	1242(r1),r6	;0x04da(r1)
    be00:	17 41 dc 04 	mov	1244(r1),r7	;0x04dc(r1)
    be04:	0b 41       	mov	r1,	r11	
    a[i] = xi ^ yi;
  }
}

static void
Hacl_Impl_HMAC_SHA2_256_hmac_core(uint8_t *mac, uint8_t *key, uint8_t *data, uint32_t len)
    be06:	0a 41       	mov	r1,	r10	
    be08:	3a 50 40 00 	add	#64,	r10	;#0x0040
{
  uint8_t ipad[64U];
  for (uint32_t _i = 0U; _i < (uint32_t)64U; ++_i)
    ipad[_i] = (uint8_t)0x36U;
    be0c:	fb 40 36 00 	mov.b	#54,	0(r11)	;#0x0036, 0x0000(r11)
    be10:	00 00 
    be12:	1b 53       	inc	r11		

static void
Hacl_Impl_HMAC_SHA2_256_hmac_core(uint8_t *mac, uint8_t *key, uint8_t *data, uint32_t len)
{
  uint8_t ipad[64U];
  for (uint32_t _i = 0U; _i < (uint32_t)64U; ++_i)
    be14:	0b 9a       	cmp	r10,	r11	
    be16:	fa 23       	jnz	$-10     	;abs 0xbe0c
    be18:	0b 41       	mov	r1,	r11	
    be1a:	3b 50 40 00 	add	#64,	r11	;#0x0040
    a[i] = xi ^ yi;
  }
}

static void
Hacl_Impl_HMAC_SHA2_256_hmac_core(uint8_t *mac, uint8_t *key, uint8_t *data, uint32_t len)
    be1e:	0a 4b       	mov	r11,	r10	
    be20:	3a 50 40 00 	add	#64,	r10	;#0x0040
  uint8_t ipad[64U];
  for (uint32_t _i = 0U; _i < (uint32_t)64U; ++_i)
    ipad[_i] = (uint8_t)0x36U;
  uint8_t opad[64U];
  for (uint32_t _i = 0U; _i < (uint32_t)64U; ++_i)
    opad[_i] = (uint8_t)0x5cU;
    be24:	fb 40 5c 00 	mov.b	#92,	0(r11)	;#0x005c, 0x0000(r11)
    be28:	00 00 
    be2a:	1b 53       	inc	r11		
{
  uint8_t ipad[64U];
  for (uint32_t _i = 0U; _i < (uint32_t)64U; ++_i)
    ipad[_i] = (uint8_t)0x36U;
  uint8_t opad[64U];
  for (uint32_t _i = 0U; _i < (uint32_t)64U; ++_i)
    be2c:	0b 9a       	cmp	r10,	r11	
    be2e:	fa 23       	jnz	$-10     	;abs 0xbe24
    opad[_i] = (uint8_t)0x5cU;
  Hacl_Impl_HMAC_SHA2_256_xor_bytes_inplace(ipad, key, (uint32_t)64U);
    be30:	3c 40 40 00 	mov	#64,	r12	;#0x0040
    be34:	0d 43       	clr	r13		
    be36:	0e 48       	mov	r8,	r14	
    be38:	0f 41       	mov	r1,	r15	
    be3a:	b0 12 58 b3 	call	#0xb358	
  uint32_t state0[137U] = { 0U };
    be3e:	3d 40 24 02 	mov	#548,	r13	;#0x0224
    be42:	0e 43       	clr	r14		
    be44:	0f 41       	mov	r1,	r15	
    be46:	3f 50 80 00 	add	#128,	r15	;#0x0080
    be4a:	b0 12 a8 c0 	call	#0xc0a8	
  uint32_t n0 = len / (uint32_t)64U;
    be4e:	0a 46       	mov	r6,	r10	
    be50:	0b 47       	mov	r7,	r11	
    be52:	12 c3       	clrc			
    be54:	0b 10       	rrc	r11		
    be56:	0a 10       	rrc	r10		
    be58:	12 c3       	clrc			
    be5a:	0b 10       	rrc	r11		
    be5c:	0a 10       	rrc	r10		
    be5e:	12 c3       	clrc			
    be60:	0b 10       	rrc	r11		
    be62:	0a 10       	rrc	r10		
    be64:	12 c3       	clrc			
    be66:	0b 10       	rrc	r11		
    be68:	0a 10       	rrc	r10		
    be6a:	12 c3       	clrc			
    be6c:	0b 10       	rrc	r11		
    be6e:	0a 10       	rrc	r10		
    be70:	12 c3       	clrc			
    be72:	0b 10       	rrc	r11		
    be74:	0a 10       	rrc	r10		
  uint32_t r0 = len % (uint32_t)64U;
  uint8_t *blocks0 = data;
  uint8_t *last0 = data + n0 * (uint32_t)64U;
    be76:	09 4a       	mov	r10,	r9	
    be78:	09 59       	rla	r9		
    be7a:	09 59       	rla	r9		
    be7c:	09 59       	rla	r9		
    be7e:	09 59       	rla	r9		
    be80:	09 59       	rla	r9		
    be82:	09 59       	rla	r9		
    be84:	09 55       	add	r5,	r9	
  Hacl_Impl_SHA2_256_init(state0);
    be86:	0f 41       	mov	r1,	r15	
    be88:	3f 50 80 00 	add	#128,	r15	;#0x0080
    be8c:	b0 12 f6 af 	call	#0xaff6	
  Hacl_Impl_SHA2_256_update(state0, ipad);
    be90:	0e 41       	mov	r1,	r14	
    be92:	0f 41       	mov	r1,	r15	
    be94:	3f 50 80 00 	add	#128,	r15	;#0x0080
    be98:	b0 12 80 b3 	call	#0xb380	
  Hacl_Impl_SHA2_256_update_multi(state0, blocks0, n0);
    be9c:	0c 4a       	mov	r10,	r12	
    be9e:	0d 4b       	mov	r11,	r13	
    bea0:	0e 45       	mov	r5,	r14	
    bea2:	0f 41       	mov	r1,	r15	
    bea4:	3f 50 80 00 	add	#128,	r15	;#0x0080
    bea8:	b0 12 b4 b9 	call	#0xb9b4	
  Hacl_Impl_SHA2_256_update_last(state0, last0, r0);
    beac:	0c 46       	mov	r6,	r12	
    beae:	0d 47       	mov	r7,	r13	
    beb0:	3c f0 3f 00 	and	#63,	r12	;#0x003f
    beb4:	0d f3       	and	#0,	r13	;r3 As==00
    beb6:	0e 49       	mov	r9,	r14	
    beb8:	0f 41       	mov	r1,	r15	
    beba:	3f 50 80 00 	add	#128,	r15	;#0x0080
    bebe:	b0 12 fa b9 	call	#0xb9fa	
  uint8_t *hash0 = ipad;
  Hacl_Impl_SHA2_256_finish(state0, hash0);
    bec2:	0e 41       	mov	r1,	r14	
    bec4:	0f 41       	mov	r1,	r15	
    bec6:	3f 50 80 00 	add	#128,	r15	;#0x0080
    beca:	b0 12 5c bc 	call	#0xbc5c	
  uint8_t *s4 = ipad;
  Hacl_Impl_HMAC_SHA2_256_xor_bytes_inplace(opad, key, (uint32_t)64U);
    bece:	3c 40 40 00 	mov	#64,	r12	;#0x0040
    bed2:	0d 43       	clr	r13		
    bed4:	0e 48       	mov	r8,	r14	
    bed6:	0f 41       	mov	r1,	r15	
    bed8:	3f 50 40 00 	add	#64,	r15	;#0x0040
    bedc:	b0 12 58 b3 	call	#0xb358	
  uint32_t state1[137U] = { 0U };
    bee0:	3d 40 24 02 	mov	#548,	r13	;#0x0224
    bee4:	0e 43       	clr	r14		
    bee6:	0f 41       	mov	r1,	r15	
    bee8:	3f 50 a4 02 	add	#676,	r15	;#0x02a4
    beec:	b0 12 a8 c0 	call	#0xc0a8	
  Hacl_Impl_SHA2_256_init(state1);
    bef0:	0f 41       	mov	r1,	r15	
    bef2:	3f 50 a4 02 	add	#676,	r15	;#0x02a4
    bef6:	b0 12 f6 af 	call	#0xaff6	
  Hacl_Impl_SHA2_256_update(state1, opad);
    befa:	0e 41       	mov	r1,	r14	
    befc:	3e 50 40 00 	add	#64,	r14	;#0x0040
    bf00:	0f 41       	mov	r1,	r15	
    bf02:	3f 50 a4 02 	add	#676,	r15	;#0x02a4
    bf06:	b0 12 80 b3 	call	#0xb380	
  Hacl_Impl_SHA2_256_update_last(state1, s4, (uint32_t)32U);
    bf0a:	3c 40 20 00 	mov	#32,	r12	;#0x0020
    bf0e:	0d 43       	clr	r13		
    bf10:	0e 41       	mov	r1,	r14	
    bf12:	0f 41       	mov	r1,	r15	
    bf14:	3f 50 a4 02 	add	#676,	r15	;#0x02a4
    bf18:	b0 12 fa b9 	call	#0xb9fa	
  Hacl_Impl_SHA2_256_finish(state1, mac);
    bf1c:	0e 44       	mov	r4,	r14	
    bf1e:	0f 41       	mov	r1,	r15	
    bf20:	3f 50 a4 02 	add	#676,	r15	;#0x02a4
    bf24:	b0 12 5c bc 	call	#0xbc5c	
}
    bf28:	31 50 c8 04 	add	#1224,	r1	;#0x04c8
    bf2c:	34 41       	pop	r4		
    bf2e:	35 41       	pop	r5		
    bf30:	36 41       	pop	r6		
    bf32:	37 41       	pop	r7		
    bf34:	38 41       	pop	r8		
    bf36:	39 41       	pop	r9		
    bf38:	3a 41       	pop	r10		
    bf3a:	3b 41       	pop	r11		
    bf3c:	30 41       	ret			

0000bf3e <hash>:
  Hacl_Impl_HMAC_SHA2_256_hmac_core(mac, nkey, data, datalen);
}

void hash(uint8_t *hash1, uint8_t *input, uint32_t len)
{
  Hacl_Impl_SHA2_256_hash(hash1, input,  len);
    bf3e:	b0 12 42 bd 	call	#0xbd42	
}
    bf42:	30 41       	ret			

0000bf44 <hmac_core>:

void hmac_core(uint8_t *mac, uint8_t *key, uint8_t *data, uint32_t len)
{
  Hacl_Impl_HMAC_SHA2_256_hmac_core(mac, key, data, len);
    bf44:	11 12 06 00 	push	6(r1)		;0x0006(r1)
    bf48:	11 12 06 00 	push	6(r1)		;0x0006(r1)
    bf4c:	b0 12 e2 bd 	call	#0xbde2	
    bf50:	21 52       	add	#4,	r1	;r2 As==10
}
    bf52:	30 41       	ret			

0000bf54 <hmac>:

void hmac(uint8_t *mac, uint8_t *key, uint32_t keylen, uint8_t *data, uint32_t datalen)
{
    bf54:	0b 12       	push	r11		
    bf56:	0a 12       	push	r10		
    bf58:	09 12       	push	r9		
    bf5a:	31 50 c0 ff 	add	#-64,	r1	;#0xffc0
    bf5e:	09 4f       	mov	r15,	r9	
    bf60:	0b 41       	mov	r1,	r11	
void hmac_core(uint8_t *mac, uint8_t *key, uint8_t *data, uint32_t len)
{
  Hacl_Impl_HMAC_SHA2_256_hmac_core(mac, key, data, len);
}

void hmac(uint8_t *mac, uint8_t *key, uint32_t keylen, uint8_t *data, uint32_t datalen)
    bf62:	0a 41       	mov	r1,	r10	
    bf64:	3a 50 40 00 	add	#64,	r10	;#0x0040
  uint32_t datalen
)
{
  uint8_t nkey[64U];
  for (uint32_t _i = 0U; _i < (uint32_t)64U; ++_i)
    nkey[_i] = (uint8_t)0x00U;
    bf68:	cb 43 00 00 	mov.b	#0,	0(r11)	;r3 As==00, 0x0000(r11)
    bf6c:	1b 53       	inc	r11		
  uint8_t *data,
  uint32_t datalen
)
{
  uint8_t nkey[64U];
  for (uint32_t _i = 0U; _i < (uint32_t)64U; ++_i)
    bf6e:	0b 9a       	cmp	r10,	r11	
    bf70:	fb 23       	jnz	$-8      	;abs 0xbf68
    nkey[_i] = (uint8_t)0x00U;
  if (keylen <= (uint32_t)64U)
    bf72:	1d 93       	cmp	#1,	r13	;r3 As==01
    bf74:	08 2c       	jc	$+18     	;abs 0xbf86
    bf76:	3c 90 41 00 	cmp	#65,	r12	;#0x0041
    bf7a:	05 2c       	jc	$+12     	;abs 0xbf86
    memcpy(nkey, key, keylen * sizeof key[0U]);
    bf7c:	0d 4c       	mov	r12,	r13	
    bf7e:	0f 41       	mov	r1,	r15	
    bf80:	b0 12 ae bf 	call	#0xbfae	
    bf84:	03 3c       	jmp	$+8      	;abs 0xbf8c
  else
  {
    uint8_t *nkey0 = nkey;
    Hacl_Impl_SHA2_256_hash(nkey0, key, keylen);
    bf86:	0f 41       	mov	r1,	r15	
    bf88:	b0 12 42 bd 	call	#0xbd42	
  }
  Hacl_Impl_HMAC_SHA2_256_hmac_core(mac, nkey, data, datalen);
    bf8c:	11 12 4e 00 	push	78(r1)		;0x004e(r1)
    bf90:	11 12 4e 00 	push	78(r1)		;0x004e(r1)
    bf94:	1d 41 4c 00 	mov	76(r1),	r13	;0x004c(r1)
    bf98:	0e 41       	mov	r1,	r14	
    bf9a:	2e 52       	add	#4,	r14	;r2 As==10
    bf9c:	0f 49       	mov	r9,	r15	
    bf9e:	b0 12 e2 bd 	call	#0xbde2	
}

void hmac(uint8_t *mac, uint8_t *key, uint32_t keylen, uint8_t *data, uint32_t datalen)
{
  Hacl_Impl_HMAC_SHA2_256_hmac(mac, key, keylen, data, datalen);
}
    bfa2:	31 50 44 00 	add	#68,	r1	;#0x0044
    bfa6:	39 41       	pop	r9		
    bfa8:	3a 41       	pop	r10		
    bfaa:	3b 41       	pop	r11		
    bfac:	30 41       	ret			

0000bfae <memcpy>:
    bfae:	0b 12       	push	r11		
    bfb0:	0a 12       	push	r10		
    bfb2:	09 12       	push	r9		
    bfb4:	08 12       	push	r8		
    bfb6:	07 12       	push	r7		
    bfb8:	0d 93       	tst	r13		
    bfba:	70 24       	jz	$+226    	;abs 0xc09c
    bfbc:	0f 9e       	cmp	r14,	r15	
    bfbe:	6e 24       	jz	$+222    	;abs 0xc09c
    bfc0:	34 2c       	jc	$+106    	;abs 0xc02a
    bfc2:	0c 4e       	mov	r14,	r12	
    bfc4:	0c df       	bis	r15,	r12	
    bfc6:	1c f3       	and	#1,	r12	;r3 As==01
    bfc8:	1b 24       	jz	$+56     	;abs 0xc000
    bfca:	0c 4e       	mov	r14,	r12	
    bfcc:	0c ef       	xor	r15,	r12	
    bfce:	1c f3       	and	#1,	r12	;r3 As==01
    bfd0:	07 20       	jnz	$+16     	;abs 0xbfe0
    bfd2:	2d 93       	cmp	#2,	r13	;r3 As==10
    bfd4:	07 28       	jnc	$+16     	;abs 0xbfe4
    bfd6:	0b 4e       	mov	r14,	r11	
    bfd8:	1b f3       	and	#1,	r11	;r3 As==01
    bfda:	2c 43       	mov	#2,	r12	;r3 As==10
    bfdc:	0c 8b       	sub	r11,	r12	
    bfde:	03 3c       	jmp	$+8      	;abs 0xbfe6
    bfe0:	0c 4d       	mov	r13,	r12	
    bfe2:	01 3c       	jmp	$+4      	;abs 0xbfe6
    bfe4:	1c 43       	mov	#1,	r12	;r3 As==01
    bfe6:	0d 8c       	sub	r12,	r13	
    bfe8:	0a 4c       	mov	r12,	r10	
    bfea:	09 4e       	mov	r14,	r9	
    bfec:	0b 4f       	mov	r15,	r11	
    bfee:	fb 49 00 00 	mov.b	@r9+,	0(r11)	;0x0000(r11)
    bff2:	1b 53       	inc	r11		
    bff4:	3a 53       	add	#-1,	r10	;r3 As==11
    bff6:	fb 23       	jnz	$-8      	;abs 0xbfee
    bff8:	0a 4f       	mov	r15,	r10	
    bffa:	0a 5c       	add	r12,	r10	
    bffc:	0e 5c       	add	r12,	r14	
    bffe:	01 3c       	jmp	$+4      	;abs 0xc002
    c000:	0a 4f       	mov	r15,	r10	
    c002:	0b 4d       	mov	r13,	r11	
    c004:	12 c3       	clrc			
    c006:	0b 10       	rrc	r11		
    c008:	0b 24       	jz	$+24     	;abs 0xc020
    c00a:	09 4b       	mov	r11,	r9	
    c00c:	08 4e       	mov	r14,	r8	
    c00e:	0c 4a       	mov	r10,	r12	
    c010:	bc 48 00 00 	mov	@r8+,	0(r12)	;0x0000(r12)
    c014:	2c 53       	incd	r12		
    c016:	39 53       	add	#-1,	r9	;r3 As==11
    c018:	fb 23       	jnz	$-8      	;abs 0xc010
    c01a:	0b 5b       	rla	r11		
    c01c:	0e 5b       	add	r11,	r14	
    c01e:	0a 5b       	add	r11,	r10	
    c020:	1d f3       	and	#1,	r13	;r3 As==01
    c022:	3c 24       	jz	$+122    	;abs 0xc09c
    c024:	ea 4e 00 00 	mov.b	@r14,	0(r10)	;0x0000(r10)
    c028:	39 3c       	jmp	$+116    	;abs 0xc09c
    c02a:	0e 5d       	add	r13,	r14	
    c02c:	0c 4f       	mov	r15,	r12	
    c02e:	0c 5d       	add	r13,	r12	
    c030:	0b 4c       	mov	r12,	r11	
    c032:	0b de       	bis	r14,	r11	
    c034:	1b f3       	and	#1,	r11	;r3 As==01
    c036:	1b 24       	jz	$+56     	;abs 0xc06e
    c038:	0b 4c       	mov	r12,	r11	
    c03a:	0b ee       	xor	r14,	r11	
    c03c:	1b f3       	and	#1,	r11	;r3 As==01
    c03e:	06 20       	jnz	$+14     	;abs 0xc04c
    c040:	3d 90 03 00 	cmp	#3,	r13	;#0x0003
    c044:	03 28       	jnc	$+8      	;abs 0xc04c
    c046:	0b 4e       	mov	r14,	r11	
    c048:	1b f3       	and	#1,	r11	;r3 As==01
    c04a:	01 3c       	jmp	$+4      	;abs 0xc04e
    c04c:	0b 4d       	mov	r13,	r11	
    c04e:	0d 8b       	sub	r11,	r13	
    c050:	09 4e       	mov	r14,	r9	
    c052:	0a 4c       	mov	r12,	r10	
    c054:	08 4b       	mov	r11,	r8	
    c056:	08 8c       	sub	r12,	r8	
    c058:	3a 53       	add	#-1,	r10	;r3 As==11
    c05a:	39 53       	add	#-1,	r9	;r3 As==11
    c05c:	ea 49 00 00 	mov.b	@r9,	0(r10)	;0x0000(r10)
    c060:	07 4a       	mov	r10,	r7	
    c062:	07 58       	add	r8,	r7	
    c064:	f9 23       	jnz	$-12     	;abs 0xc058
    c066:	3b e3       	inv	r11		
    c068:	1b 53       	inc	r11		
    c06a:	0c 5b       	add	r11,	r12	
    c06c:	0e 5b       	add	r11,	r14	
    c06e:	0b 4d       	mov	r13,	r11	
    c070:	12 c3       	clrc			
    c072:	0b 10       	rrc	r11		
    c074:	0e 24       	jz	$+30     	;abs 0xc092
    c076:	0a 4b       	mov	r11,	r10	
    c078:	08 4e       	mov	r14,	r8	
    c07a:	09 4c       	mov	r12,	r9	
    c07c:	28 83       	decd	r8		
    c07e:	29 83       	decd	r9		
    c080:	a9 48 00 00 	mov	@r8,	0(r9)	;0x0000(r9)
    c084:	3a 53       	add	#-1,	r10	;r3 As==11
    c086:	fa 23       	jnz	$-10     	;abs 0xc07c
    c088:	0a 8b       	sub	r11,	r10	
    c08a:	0b 4a       	mov	r10,	r11	
    c08c:	0b 5b       	rla	r11		
    c08e:	0e 5b       	add	r11,	r14	
    c090:	0c 5b       	add	r11,	r12	
    c092:	1d f3       	and	#1,	r13	;r3 As==01
    c094:	03 24       	jz	$+8      	;abs 0xc09c
    c096:	dc 4e ff ff 	mov.b	-1(r14),-1(r12)	;0xffff(r14), 0xffff(r12)
    c09a:	ff ff 
    c09c:	37 41       	pop	r7		
    c09e:	38 41       	pop	r8		
    c0a0:	39 41       	pop	r9		
    c0a2:	3a 41       	pop	r10		
    c0a4:	3b 41       	pop	r11		
    c0a6:	30 41       	ret			

0000c0a8 <memset>:
    c0a8:	0b 12       	push	r11		
    c0aa:	0a 12       	push	r10		
    c0ac:	09 12       	push	r9		
    c0ae:	08 12       	push	r8		
    c0b0:	3d 90 06 00 	cmp	#6,	r13	;#0x0006
    c0b4:	09 2c       	jc	$+20     	;abs 0xc0c8
    c0b6:	0c 4f       	mov	r15,	r12	
    c0b8:	04 3c       	jmp	$+10     	;abs 0xc0c2
    c0ba:	cc 4e 00 00 	mov.b	r14,	0(r12)	;0x0000(r12)
    c0be:	1c 53       	inc	r12		
    c0c0:	3d 53       	add	#-1,	r13	;r3 As==11
    c0c2:	0d 93       	tst	r13		
    c0c4:	fa 23       	jnz	$-10     	;abs 0xc0ba
    c0c6:	20 3c       	jmp	$+66     	;abs 0xc108
    c0c8:	4e 4e       	mov.b	r14,	r14	
    c0ca:	4b 4e       	mov.b	r14,	r11	
    c0cc:	0b 93       	tst	r11		
    c0ce:	03 24       	jz	$+8      	;abs 0xc0d6
    c0d0:	0c 4b       	mov	r11,	r12	
    c0d2:	8c 10       	swpb	r12		
    c0d4:	0b dc       	bis	r12,	r11	
    c0d6:	1f b3       	bit	#1,	r15	;r3 As==01
    c0d8:	06 24       	jz	$+14     	;abs 0xc0e6
    c0da:	3d 53       	add	#-1,	r13	;r3 As==11
    c0dc:	cf 4e 00 00 	mov.b	r14,	0(r15)	;0x0000(r15)
    c0e0:	09 4f       	mov	r15,	r9	
    c0e2:	19 53       	inc	r9		
    c0e4:	01 3c       	jmp	$+4      	;abs 0xc0e8
    c0e6:	09 4f       	mov	r15,	r9	
    c0e8:	0c 4d       	mov	r13,	r12	
    c0ea:	12 c3       	clrc			
    c0ec:	0c 10       	rrc	r12		
    c0ee:	0a 49       	mov	r9,	r10	
    c0f0:	08 4c       	mov	r12,	r8	
    c0f2:	8a 4b 00 00 	mov	r11,	0(r10)	;0x0000(r10)
    c0f6:	2a 53       	incd	r10		
    c0f8:	38 53       	add	#-1,	r8	;r3 As==11
    c0fa:	fb 23       	jnz	$-8      	;abs 0xc0f2
    c0fc:	0c 5c       	rla	r12		
    c0fe:	0c 59       	add	r9,	r12	
    c100:	1d f3       	and	#1,	r13	;r3 As==01
    c102:	02 24       	jz	$+6      	;abs 0xc108
    c104:	cc 4e 00 00 	mov.b	r14,	0(r12)	;0x0000(r12)
    c108:	38 41       	pop	r8		
    c10a:	39 41       	pop	r9		
    c10c:	3a 41       	pop	r10		
    c10e:	3b 41       	pop	r11		
    c110:	30 41       	ret			

0000c112 <__cur_offset>:
    c112:	03 43       	nop			
    c114:	03 43       	nop			
    c116:	03 43       	nop			
    c118:	03 43       	nop			
    c11a:	03 43       	nop			
    c11c:	03 43       	nop			
    c11e:	03 43       	nop			
    c120:	03 43       	nop			
    c122:	03 43       	nop			
    c124:	03 43       	nop			
    c126:	03 43       	nop			
    c128:	03 43       	nop			
    c12a:	03 43       	nop			
    c12c:	03 43       	nop			
    c12e:	03 43       	nop			
    c130:	03 43       	nop			
    c132:	03 43       	nop			
    c134:	03 43       	nop			
    c136:	03 43       	nop			
    c138:	03 43       	nop			
    c13a:	03 43       	nop			
    c13c:	03 43       	nop			
    c13e:	03 43       	nop			
    c140:	03 43       	nop			
    c142:	03 43       	nop			
    c144:	03 43       	nop			
    c146:	03 43       	nop			
    c148:	03 43       	nop			
    c14a:	03 43       	nop			
    c14c:	03 43       	nop			
    c14e:	03 43       	nop			
    c150:	03 43       	nop			
    c152:	03 43       	nop			
    c154:	03 43       	nop			
    c156:	03 43       	nop			
    c158:	03 43       	nop			
    c15a:	03 43       	nop			
    c15c:	03 43       	nop			
    c15e:	03 43       	nop			
    c160:	03 43       	nop			
    c162:	03 43       	nop			
    c164:	03 43       	nop			
    c166:	03 43       	nop			
    c168:	03 43       	nop			
    c16a:	03 43       	nop			
    c16c:	03 43       	nop			
    c16e:	03 43       	nop			
    c170:	03 43       	nop			
    c172:	03 43       	nop			
    c174:	03 43       	nop			
    c176:	03 43       	nop			
    c178:	03 43       	nop			
    c17a:	03 43       	nop			
    c17c:	03 43       	nop			
    c17e:	03 43       	nop			
    c180:	03 43       	nop			
    c182:	03 43       	nop			
    c184:	03 43       	nop			
    c186:	03 43       	nop			
    c188:	03 43       	nop			
    c18a:	03 43       	nop			
    c18c:	03 43       	nop			
    c18e:	03 43       	nop			
    c190:	03 43       	nop			
    c192:	03 43       	nop			
    c194:	03 43       	nop			
    c196:	03 43       	nop			
    c198:	03 43       	nop			
    c19a:	03 43       	nop			
    c19c:	03 43       	nop			
    c19e:	03 43       	nop			
    c1a0:	03 43       	nop			
    c1a2:	03 43       	nop			
    c1a4:	03 43       	nop			
    c1a6:	03 43       	nop			
    c1a8:	03 43       	nop			
    c1aa:	03 43       	nop			
    c1ac:	03 43       	nop			
    c1ae:	03 43       	nop			
    c1b0:	03 43       	nop			
    c1b2:	03 43       	nop			
    c1b4:	03 43       	nop			
    c1b6:	03 43       	nop			
    c1b8:	03 43       	nop			
    c1ba:	03 43       	nop			
    c1bc:	03 43       	nop			
    c1be:	03 43       	nop			
    c1c0:	03 43       	nop			
    c1c2:	03 43       	nop			
    c1c4:	03 43       	nop			
    c1c6:	03 43       	nop			
    c1c8:	03 43       	nop			
    c1ca:	03 43       	nop			
    c1cc:	03 43       	nop			
    c1ce:	03 43       	nop			
    c1d0:	03 43       	nop			
    c1d2:	03 43       	nop			
    c1d4:	03 43       	nop			
    c1d6:	03 43       	nop			
    c1d8:	03 43       	nop			
    c1da:	03 43       	nop			
    c1dc:	03 43       	nop			
    c1de:	03 43       	nop			
    c1e0:	03 43       	nop			
    c1e2:	03 43       	nop			
    c1e4:	03 43       	nop			
    c1e6:	03 43       	nop			
    c1e8:	03 43       	nop			
    c1ea:	03 43       	nop			
    c1ec:	03 43       	nop			
    c1ee:	03 43       	nop			
    c1f0:	03 43       	nop			
    c1f2:	03 43       	nop			
    c1f4:	03 43       	nop			
    c1f6:	03 43       	nop			
    c1f8:	03 43       	nop			
    c1fa:	03 43       	nop			
    c1fc:	03 43       	nop			
    c1fe:	03 43       	nop			
    c200:	03 43       	nop			
    c202:	03 43       	nop			
    c204:	03 43       	nop			
    c206:	03 43       	nop			
    c208:	03 43       	nop			
    c20a:	03 43       	nop			
    c20c:	03 43       	nop			
    c20e:	03 43       	nop			
    c210:	03 43       	nop			
    c212:	03 43       	nop			
    c214:	03 43       	nop			
    c216:	03 43       	nop			
    c218:	03 43       	nop			
    c21a:	03 43       	nop			
    c21c:	03 43       	nop			
    c21e:	03 43       	nop			
    c220:	03 43       	nop			
    c222:	03 43       	nop			
    c224:	03 43       	nop			
    c226:	03 43       	nop			
    c228:	03 43       	nop			
    c22a:	03 43       	nop			
    c22c:	03 43       	nop			
    c22e:	03 43       	nop			
    c230:	03 43       	nop			
    c232:	03 43       	nop			
    c234:	03 43       	nop			
    c236:	03 43       	nop			
    c238:	03 43       	nop			
    c23a:	03 43       	nop			
    c23c:	03 43       	nop			
    c23e:	03 43       	nop			
    c240:	03 43       	nop			
    c242:	03 43       	nop			
    c244:	03 43       	nop			
    c246:	03 43       	nop			
    c248:	03 43       	nop			
    c24a:	03 43       	nop			
    c24c:	03 43       	nop			
    c24e:	03 43       	nop			
    c250:	03 43       	nop			
    c252:	03 43       	nop			
    c254:	03 43       	nop			
    c256:	03 43       	nop			
    c258:	03 43       	nop			
    c25a:	03 43       	nop			
    c25c:	03 43       	nop			
    c25e:	03 43       	nop			
    c260:	03 43       	nop			
    c262:	03 43       	nop			
    c264:	03 43       	nop			
    c266:	03 43       	nop			
    c268:	03 43       	nop			
    c26a:	03 43       	nop			
    c26c:	03 43       	nop			
    c26e:	03 43       	nop			
    c270:	03 43       	nop			
    c272:	03 43       	nop			
    c274:	03 43       	nop			
    c276:	03 43       	nop			
    c278:	03 43       	nop			
    c27a:	03 43       	nop			
    c27c:	03 43       	nop			
    c27e:	03 43       	nop			
    c280:	03 43       	nop			
    c282:	03 43       	nop			
    c284:	03 43       	nop			
    c286:	03 43       	nop			
    c288:	03 43       	nop			
    c28a:	03 43       	nop			
    c28c:	03 43       	nop			
    c28e:	03 43       	nop			
    c290:	03 43       	nop			
    c292:	03 43       	nop			
    c294:	03 43       	nop			
    c296:	03 43       	nop			
    c298:	03 43       	nop			
    c29a:	03 43       	nop			
    c29c:	03 43       	nop			
    c29e:	03 43       	nop			
    c2a0:	03 43       	nop			
    c2a2:	03 43       	nop			
    c2a4:	03 43       	nop			
    c2a6:	03 43       	nop			
    c2a8:	03 43       	nop			
    c2aa:	03 43       	nop			
    c2ac:	03 43       	nop			
    c2ae:	03 43       	nop			
    c2b0:	03 43       	nop			
    c2b2:	03 43       	nop			
    c2b4:	03 43       	nop			
    c2b6:	03 43       	nop			
    c2b8:	03 43       	nop			
    c2ba:	03 43       	nop			
    c2bc:	03 43       	nop			
    c2be:	03 43       	nop			
    c2c0:	03 43       	nop			
    c2c2:	03 43       	nop			
    c2c4:	03 43       	nop			
    c2c6:	03 43       	nop			
    c2c8:	03 43       	nop			
    c2ca:	03 43       	nop			
    c2cc:	03 43       	nop			
    c2ce:	03 43       	nop			
    c2d0:	03 43       	nop			
    c2d2:	03 43       	nop			
    c2d4:	03 43       	nop			
    c2d6:	03 43       	nop			
    c2d8:	03 43       	nop			
    c2da:	03 43       	nop			
    c2dc:	03 43       	nop			
    c2de:	03 43       	nop			
    c2e0:	03 43       	nop			
    c2e2:	03 43       	nop			
    c2e4:	03 43       	nop			
    c2e6:	03 43       	nop			
    c2e8:	03 43       	nop			
    c2ea:	03 43       	nop			
    c2ec:	03 43       	nop			
    c2ee:	03 43       	nop			
    c2f0:	03 43       	nop			
    c2f2:	03 43       	nop			
    c2f4:	03 43       	nop			
    c2f6:	03 43       	nop			
    c2f8:	03 43       	nop			
    c2fa:	03 43       	nop			
    c2fc:	03 43       	nop			
    c2fe:	03 43       	nop			
    c300:	03 43       	nop			
    c302:	03 43       	nop			
    c304:	03 43       	nop			
    c306:	03 43       	nop			
    c308:	03 43       	nop			
    c30a:	03 43       	nop			
    c30c:	03 43       	nop			
    c30e:	03 43       	nop			
    c310:	03 43       	nop			
    c312:	03 43       	nop			
    c314:	03 43       	nop			
    c316:	03 43       	nop			
    c318:	03 43       	nop			
    c31a:	03 43       	nop			
    c31c:	03 43       	nop			
    c31e:	03 43       	nop			
    c320:	03 43       	nop			
    c322:	03 43       	nop			
    c324:	03 43       	nop			
    c326:	03 43       	nop			
    c328:	03 43       	nop			
    c32a:	03 43       	nop			
    c32c:	03 43       	nop			
    c32e:	03 43       	nop			
    c330:	03 43       	nop			
    c332:	03 43       	nop			
    c334:	03 43       	nop			
    c336:	03 43       	nop			
    c338:	03 43       	nop			
    c33a:	03 43       	nop			
    c33c:	03 43       	nop			
    c33e:	03 43       	nop			
    c340:	03 43       	nop			
    c342:	03 43       	nop			
    c344:	03 43       	nop			
    c346:	03 43       	nop			
    c348:	03 43       	nop			
    c34a:	03 43       	nop			
    c34c:	03 43       	nop			
    c34e:	03 43       	nop			
    c350:	03 43       	nop			
    c352:	03 43       	nop			
    c354:	03 43       	nop			
    c356:	03 43       	nop			
    c358:	03 43       	nop			
    c35a:	03 43       	nop			
    c35c:	03 43       	nop			
    c35e:	03 43       	nop			
    c360:	03 43       	nop			
    c362:	03 43       	nop			
    c364:	03 43       	nop			
    c366:	03 43       	nop			
    c368:	03 43       	nop			
    c36a:	03 43       	nop			
    c36c:	03 43       	nop			
    c36e:	03 43       	nop			
    c370:	03 43       	nop			
    c372:	03 43       	nop			
    c374:	03 43       	nop			
    c376:	03 43       	nop			
    c378:	03 43       	nop			
    c37a:	03 43       	nop			
    c37c:	03 43       	nop			
    c37e:	03 43       	nop			
    c380:	03 43       	nop			
    c382:	03 43       	nop			
    c384:	03 43       	nop			
    c386:	03 43       	nop			
    c388:	03 43       	nop			
    c38a:	03 43       	nop			
    c38c:	03 43       	nop			
    c38e:	03 43       	nop			
    c390:	03 43       	nop			
    c392:	03 43       	nop			
    c394:	03 43       	nop			
    c396:	03 43       	nop			
    c398:	03 43       	nop			
    c39a:	03 43       	nop			
    c39c:	03 43       	nop			
    c39e:	03 43       	nop			
    c3a0:	03 43       	nop			
    c3a2:	03 43       	nop			
    c3a4:	03 43       	nop			
    c3a6:	03 43       	nop			
    c3a8:	03 43       	nop			
    c3aa:	03 43       	nop			
    c3ac:	03 43       	nop			
    c3ae:	03 43       	nop			
    c3b0:	03 43       	nop			
    c3b2:	03 43       	nop			
    c3b4:	03 43       	nop			
    c3b6:	03 43       	nop			
    c3b8:	03 43       	nop			
    c3ba:	03 43       	nop			
    c3bc:	03 43       	nop			
    c3be:	03 43       	nop			
    c3c0:	03 43       	nop			
    c3c2:	03 43       	nop			
    c3c4:	03 43       	nop			
    c3c6:	03 43       	nop			
    c3c8:	03 43       	nop			
    c3ca:	03 43       	nop			
    c3cc:	03 43       	nop			
    c3ce:	03 43       	nop			
    c3d0:	03 43       	nop			
    c3d2:	03 43       	nop			
    c3d4:	03 43       	nop			
    c3d6:	03 43       	nop			
    c3d8:	03 43       	nop			
    c3da:	03 43       	nop			
    c3dc:	03 43       	nop			
    c3de:	03 43       	nop			
    c3e0:	03 43       	nop			
    c3e2:	03 43       	nop			
    c3e4:	03 43       	nop			
    c3e6:	03 43       	nop			
    c3e8:	03 43       	nop			
    c3ea:	03 43       	nop			
    c3ec:	03 43       	nop			
    c3ee:	03 43       	nop			
    c3f0:	03 43       	nop			
    c3f2:	03 43       	nop			
    c3f4:	03 43       	nop			
    c3f6:	03 43       	nop			
    c3f8:	03 43       	nop			
    c3fa:	03 43       	nop			
    c3fc:	03 43       	nop			
    c3fe:	03 43       	nop			
    c400:	03 43       	nop			
    c402:	03 43       	nop			
    c404:	03 43       	nop			
    c406:	03 43       	nop			
    c408:	03 43       	nop			
    c40a:	03 43       	nop			
    c40c:	03 43       	nop			
    c40e:	03 43       	nop			
    c410:	03 43       	nop			
    c412:	03 43       	nop			
    c414:	03 43       	nop			
    c416:	03 43       	nop			
    c418:	03 43       	nop			
    c41a:	03 43       	nop			
    c41c:	03 43       	nop			
    c41e:	03 43       	nop			
    c420:	03 43       	nop			
    c422:	03 43       	nop			
    c424:	03 43       	nop			
    c426:	03 43       	nop			
    c428:	03 43       	nop			
    c42a:	03 43       	nop			
    c42c:	03 43       	nop			
    c42e:	03 43       	nop			
    c430:	03 43       	nop			
    c432:	03 43       	nop			
    c434:	03 43       	nop			
    c436:	03 43       	nop			
    c438:	03 43       	nop			
    c43a:	03 43       	nop			
    c43c:	03 43       	nop			
    c43e:	03 43       	nop			
    c440:	03 43       	nop			
    c442:	03 43       	nop			
    c444:	03 43       	nop			
    c446:	03 43       	nop			
    c448:	03 43       	nop			
    c44a:	03 43       	nop			
    c44c:	03 43       	nop			
    c44e:	03 43       	nop			
    c450:	03 43       	nop			
    c452:	03 43       	nop			
    c454:	03 43       	nop			
    c456:	03 43       	nop			
    c458:	03 43       	nop			
    c45a:	03 43       	nop			
    c45c:	03 43       	nop			
    c45e:	03 43       	nop			
    c460:	03 43       	nop			
    c462:	03 43       	nop			
    c464:	03 43       	nop			
    c466:	03 43       	nop			
    c468:	03 43       	nop			
    c46a:	03 43       	nop			
    c46c:	03 43       	nop			
    c46e:	03 43       	nop			
    c470:	03 43       	nop			
    c472:	03 43       	nop			
    c474:	03 43       	nop			
    c476:	03 43       	nop			
    c478:	03 43       	nop			
    c47a:	03 43       	nop			
    c47c:	03 43       	nop			
    c47e:	03 43       	nop			
    c480:	03 43       	nop			
    c482:	03 43       	nop			
    c484:	03 43       	nop			
    c486:	03 43       	nop			
    c488:	03 43       	nop			
    c48a:	03 43       	nop			
    c48c:	03 43       	nop			
    c48e:	03 43       	nop			
    c490:	03 43       	nop			
    c492:	03 43       	nop			
    c494:	03 43       	nop			
    c496:	03 43       	nop			
    c498:	03 43       	nop			
    c49a:	03 43       	nop			
    c49c:	03 43       	nop			
    c49e:	03 43       	nop			
    c4a0:	03 43       	nop			
    c4a2:	03 43       	nop			
    c4a4:	03 43       	nop			
    c4a6:	03 43       	nop			
    c4a8:	03 43       	nop			
    c4aa:	03 43       	nop			
    c4ac:	03 43       	nop			
    c4ae:	03 43       	nop			
    c4b0:	03 43       	nop			
    c4b2:	03 43       	nop			
    c4b4:	03 43       	nop			
    c4b6:	03 43       	nop			
    c4b8:	03 43       	nop			
    c4ba:	03 43       	nop			
    c4bc:	03 43       	nop			
    c4be:	03 43       	nop			
    c4c0:	03 43       	nop			
    c4c2:	03 43       	nop			
    c4c4:	03 43       	nop			
    c4c6:	03 43       	nop			
    c4c8:	03 43       	nop			
    c4ca:	03 43       	nop			
    c4cc:	03 43       	nop			
    c4ce:	03 43       	nop			
    c4d0:	03 43       	nop			
    c4d2:	03 43       	nop			
    c4d4:	03 43       	nop			
    c4d6:	03 43       	nop			
    c4d8:	03 43       	nop			
    c4da:	03 43       	nop			
    c4dc:	03 43       	nop			
    c4de:	03 43       	nop			
    c4e0:	03 43       	nop			
    c4e2:	03 43       	nop			
    c4e4:	03 43       	nop			
    c4e6:	03 43       	nop			
    c4e8:	03 43       	nop			
    c4ea:	03 43       	nop			
    c4ec:	03 43       	nop			
    c4ee:	03 43       	nop			
    c4f0:	03 43       	nop			
    c4f2:	03 43       	nop			
    c4f4:	03 43       	nop			
    c4f6:	03 43       	nop			
    c4f8:	03 43       	nop			
    c4fa:	03 43       	nop			
    c4fc:	03 43       	nop			
    c4fe:	03 43       	nop			
    c500:	03 43       	nop			
    c502:	03 43       	nop			
    c504:	03 43       	nop			
    c506:	03 43       	nop			
    c508:	03 43       	nop			
    c50a:	03 43       	nop			
    c50c:	03 43       	nop			
    c50e:	03 43       	nop			
    c510:	03 43       	nop			
    c512:	03 43       	nop			
    c514:	03 43       	nop			
    c516:	03 43       	nop			
    c518:	03 43       	nop			
    c51a:	03 43       	nop			
    c51c:	03 43       	nop			
    c51e:	03 43       	nop			
    c520:	03 43       	nop			
    c522:	03 43       	nop			
    c524:	03 43       	nop			
    c526:	03 43       	nop			
    c528:	03 43       	nop			
    c52a:	03 43       	nop			
    c52c:	03 43       	nop			
    c52e:	03 43       	nop			
    c530:	03 43       	nop			
    c532:	03 43       	nop			
    c534:	03 43       	nop			
    c536:	03 43       	nop			
    c538:	03 43       	nop			
    c53a:	03 43       	nop			
    c53c:	03 43       	nop			
    c53e:	03 43       	nop			
    c540:	03 43       	nop			
    c542:	03 43       	nop			
    c544:	03 43       	nop			
    c546:	03 43       	nop			
    c548:	03 43       	nop			
    c54a:	03 43       	nop			
    c54c:	03 43       	nop			
    c54e:	03 43       	nop			
    c550:	03 43       	nop			
    c552:	03 43       	nop			
    c554:	03 43       	nop			
    c556:	03 43       	nop			
    c558:	03 43       	nop			
    c55a:	03 43       	nop			
    c55c:	03 43       	nop			
    c55e:	03 43       	nop			
    c560:	03 43       	nop			
    c562:	03 43       	nop			
    c564:	03 43       	nop			
    c566:	03 43       	nop			
    c568:	03 43       	nop			
    c56a:	03 43       	nop			
    c56c:	03 43       	nop			
    c56e:	03 43       	nop			
    c570:	03 43       	nop			
    c572:	03 43       	nop			
    c574:	03 43       	nop			
    c576:	03 43       	nop			
    c578:	03 43       	nop			
    c57a:	03 43       	nop			
    c57c:	03 43       	nop			
    c57e:	03 43       	nop			
    c580:	03 43       	nop			
    c582:	03 43       	nop			
    c584:	03 43       	nop			
    c586:	03 43       	nop			
    c588:	03 43       	nop			
    c58a:	03 43       	nop			
    c58c:	03 43       	nop			
    c58e:	03 43       	nop			
    c590:	03 43       	nop			
    c592:	03 43       	nop			
    c594:	03 43       	nop			
    c596:	03 43       	nop			
    c598:	03 43       	nop			
    c59a:	03 43       	nop			
    c59c:	03 43       	nop			
    c59e:	03 43       	nop			
    c5a0:	03 43       	nop			
    c5a2:	03 43       	nop			
    c5a4:	03 43       	nop			
    c5a6:	03 43       	nop			
    c5a8:	03 43       	nop			
    c5aa:	03 43       	nop			
    c5ac:	03 43       	nop			
    c5ae:	03 43       	nop			
    c5b0:	03 43       	nop			
    c5b2:	03 43       	nop			
    c5b4:	03 43       	nop			
    c5b6:	03 43       	nop			
    c5b8:	03 43       	nop			
    c5ba:	03 43       	nop			
    c5bc:	03 43       	nop			
    c5be:	03 43       	nop			
    c5c0:	03 43       	nop			
    c5c2:	03 43       	nop			
    c5c4:	03 43       	nop			
    c5c6:	03 43       	nop			
    c5c8:	03 43       	nop			
    c5ca:	03 43       	nop			
    c5cc:	03 43       	nop			
    c5ce:	03 43       	nop			
    c5d0:	03 43       	nop			
    c5d2:	03 43       	nop			
    c5d4:	03 43       	nop			
    c5d6:	03 43       	nop			
    c5d8:	03 43       	nop			
    c5da:	03 43       	nop			
    c5dc:	03 43       	nop			
    c5de:	03 43       	nop			
    c5e0:	03 43       	nop			
    c5e2:	03 43       	nop			
    c5e4:	03 43       	nop			
    c5e6:	03 43       	nop			
    c5e8:	03 43       	nop			
    c5ea:	03 43       	nop			
    c5ec:	03 43       	nop			
    c5ee:	03 43       	nop			
    c5f0:	03 43       	nop			
    c5f2:	03 43       	nop			
    c5f4:	03 43       	nop			
    c5f6:	03 43       	nop			
    c5f8:	03 43       	nop			
    c5fa:	03 43       	nop			
    c5fc:	03 43       	nop			
    c5fe:	03 43       	nop			
    c600:	03 43       	nop			
    c602:	03 43       	nop			
    c604:	03 43       	nop			
    c606:	03 43       	nop			
    c608:	03 43       	nop			
    c60a:	03 43       	nop			
    c60c:	03 43       	nop			
    c60e:	03 43       	nop			
    c610:	03 43       	nop			
    c612:	03 43       	nop			
    c614:	03 43       	nop			
    c616:	03 43       	nop			
    c618:	03 43       	nop			
    c61a:	03 43       	nop			
    c61c:	03 43       	nop			
    c61e:	03 43       	nop			
    c620:	03 43       	nop			
    c622:	03 43       	nop			
    c624:	03 43       	nop			
    c626:	03 43       	nop			
    c628:	03 43       	nop			
    c62a:	03 43       	nop			
    c62c:	03 43       	nop			
    c62e:	03 43       	nop			
    c630:	03 43       	nop			
    c632:	03 43       	nop			
    c634:	03 43       	nop			
    c636:	03 43       	nop			
    c638:	03 43       	nop			
    c63a:	03 43       	nop			
    c63c:	03 43       	nop			
    c63e:	03 43       	nop			
    c640:	03 43       	nop			
    c642:	03 43       	nop			
    c644:	03 43       	nop			
    c646:	03 43       	nop			
    c648:	03 43       	nop			
    c64a:	03 43       	nop			
    c64c:	03 43       	nop			
    c64e:	03 43       	nop			
    c650:	03 43       	nop			
    c652:	03 43       	nop			
    c654:	03 43       	nop			
    c656:	03 43       	nop			
    c658:	03 43       	nop			
    c65a:	03 43       	nop			
    c65c:	03 43       	nop			
    c65e:	03 43       	nop			
    c660:	03 43       	nop			
    c662:	03 43       	nop			
    c664:	03 43       	nop			
    c666:	03 43       	nop			
    c668:	03 43       	nop			
    c66a:	03 43       	nop			
    c66c:	03 43       	nop			
    c66e:	03 43       	nop			
    c670:	03 43       	nop			
    c672:	03 43       	nop			
    c674:	03 43       	nop			
    c676:	03 43       	nop			
    c678:	03 43       	nop			
    c67a:	03 43       	nop			
    c67c:	03 43       	nop			
    c67e:	03 43       	nop			
    c680:	03 43       	nop			
    c682:	03 43       	nop			
    c684:	03 43       	nop			
    c686:	03 43       	nop			
    c688:	03 43       	nop			
    c68a:	03 43       	nop			
    c68c:	03 43       	nop			
    c68e:	03 43       	nop			
    c690:	03 43       	nop			
    c692:	03 43       	nop			
    c694:	03 43       	nop			
    c696:	03 43       	nop			
    c698:	03 43       	nop			
    c69a:	03 43       	nop			
    c69c:	03 43       	nop			
    c69e:	03 43       	nop			
    c6a0:	03 43       	nop			
    c6a2:	03 43       	nop			
    c6a4:	03 43       	nop			
    c6a6:	03 43       	nop			
    c6a8:	03 43       	nop			
    c6aa:	03 43       	nop			
    c6ac:	03 43       	nop			
    c6ae:	03 43       	nop			
    c6b0:	03 43       	nop			
    c6b2:	03 43       	nop			
    c6b4:	03 43       	nop			
    c6b6:	03 43       	nop			
    c6b8:	03 43       	nop			
    c6ba:	03 43       	nop			
    c6bc:	03 43       	nop			
    c6be:	03 43       	nop			
    c6c0:	03 43       	nop			
    c6c2:	03 43       	nop			
    c6c4:	03 43       	nop			
    c6c6:	03 43       	nop			
    c6c8:	03 43       	nop			
    c6ca:	03 43       	nop			
    c6cc:	03 43       	nop			
    c6ce:	03 43       	nop			
    c6d0:	03 43       	nop			
    c6d2:	03 43       	nop			
    c6d4:	03 43       	nop			
    c6d6:	03 43       	nop			
    c6d8:	03 43       	nop			
    c6da:	03 43       	nop			
    c6dc:	03 43       	nop			
    c6de:	03 43       	nop			
    c6e0:	03 43       	nop			
    c6e2:	03 43       	nop			
    c6e4:	03 43       	nop			
    c6e6:	03 43       	nop			
    c6e8:	03 43       	nop			
    c6ea:	03 43       	nop			
    c6ec:	03 43       	nop			
    c6ee:	03 43       	nop			
    c6f0:	03 43       	nop			
    c6f2:	03 43       	nop			
    c6f4:	03 43       	nop			
    c6f6:	03 43       	nop			
    c6f8:	03 43       	nop			
    c6fa:	03 43       	nop			
    c6fc:	03 43       	nop			
    c6fe:	03 43       	nop			
    c700:	03 43       	nop			
    c702:	03 43       	nop			
    c704:	03 43       	nop			
    c706:	03 43       	nop			
    c708:	03 43       	nop			
    c70a:	03 43       	nop			
    c70c:	03 43       	nop			
    c70e:	03 43       	nop			
    c710:	03 43       	nop			
    c712:	03 43       	nop			
    c714:	03 43       	nop			
    c716:	03 43       	nop			
    c718:	03 43       	nop			
    c71a:	03 43       	nop			
    c71c:	03 43       	nop			
    c71e:	03 43       	nop			
    c720:	03 43       	nop			
    c722:	03 43       	nop			
    c724:	03 43       	nop			
    c726:	03 43       	nop			
    c728:	03 43       	nop			
    c72a:	03 43       	nop			
    c72c:	03 43       	nop			
    c72e:	03 43       	nop			
    c730:	03 43       	nop			
    c732:	03 43       	nop			
    c734:	03 43       	nop			
    c736:	03 43       	nop			
    c738:	03 43       	nop			
    c73a:	03 43       	nop			
    c73c:	03 43       	nop			
    c73e:	03 43       	nop			
    c740:	03 43       	nop			
    c742:	03 43       	nop			
    c744:	03 43       	nop			
    c746:	03 43       	nop			
    c748:	03 43       	nop			
    c74a:	03 43       	nop			
    c74c:	03 43       	nop			
    c74e:	03 43       	nop			
    c750:	03 43       	nop			
    c752:	03 43       	nop			
    c754:	03 43       	nop			
    c756:	03 43       	nop			
    c758:	03 43       	nop			
    c75a:	03 43       	nop			
    c75c:	03 43       	nop			
    c75e:	03 43       	nop			
    c760:	03 43       	nop			
    c762:	03 43       	nop			
    c764:	03 43       	nop			
    c766:	03 43       	nop			
    c768:	03 43       	nop			
    c76a:	03 43       	nop			
    c76c:	03 43       	nop			
    c76e:	03 43       	nop			
    c770:	03 43       	nop			
    c772:	03 43       	nop			
    c774:	03 43       	nop			
    c776:	03 43       	nop			
    c778:	03 43       	nop			
    c77a:	03 43       	nop			
    c77c:	03 43       	nop			
    c77e:	03 43       	nop			
    c780:	03 43       	nop			
    c782:	03 43       	nop			
    c784:	03 43       	nop			
    c786:	03 43       	nop			
    c788:	03 43       	nop			
    c78a:	03 43       	nop			
    c78c:	03 43       	nop			
    c78e:	03 43       	nop			
    c790:	03 43       	nop			
    c792:	03 43       	nop			
    c794:	03 43       	nop			
    c796:	03 43       	nop			
    c798:	03 43       	nop			
    c79a:	03 43       	nop			
    c79c:	03 43       	nop			
    c79e:	03 43       	nop			
    c7a0:	03 43       	nop			
    c7a2:	03 43       	nop			
    c7a4:	03 43       	nop			
    c7a6:	03 43       	nop			
    c7a8:	03 43       	nop			
    c7aa:	03 43       	nop			
    c7ac:	03 43       	nop			
    c7ae:	03 43       	nop			
    c7b0:	03 43       	nop			
    c7b2:	03 43       	nop			
    c7b4:	03 43       	nop			
    c7b6:	03 43       	nop			
    c7b8:	03 43       	nop			
    c7ba:	03 43       	nop			
    c7bc:	03 43       	nop			
    c7be:	03 43       	nop			
    c7c0:	03 43       	nop			
    c7c2:	03 43       	nop			
    c7c4:	03 43       	nop			
    c7c6:	03 43       	nop			
    c7c8:	03 43       	nop			
    c7ca:	03 43       	nop			
    c7cc:	03 43       	nop			
    c7ce:	03 43       	nop			
    c7d0:	03 43       	nop			
    c7d2:	03 43       	nop			
    c7d4:	03 43       	nop			
    c7d6:	03 43       	nop			
    c7d8:	03 43       	nop			
    c7da:	03 43       	nop			
    c7dc:	03 43       	nop			
    c7de:	03 43       	nop			
    c7e0:	03 43       	nop			
    c7e2:	03 43       	nop			
    c7e4:	03 43       	nop			
    c7e6:	03 43       	nop			
    c7e8:	03 43       	nop			
    c7ea:	03 43       	nop			
    c7ec:	03 43       	nop			
    c7ee:	03 43       	nop			
    c7f0:	03 43       	nop			
    c7f2:	03 43       	nop			
    c7f4:	03 43       	nop			
    c7f6:	03 43       	nop			
    c7f8:	03 43       	nop			
    c7fa:	03 43       	nop			
    c7fc:	03 43       	nop			
    c7fe:	03 43       	nop			
    c800:	03 43       	nop			
    c802:	03 43       	nop			
    c804:	03 43       	nop			
    c806:	03 43       	nop			
    c808:	03 43       	nop			
    c80a:	03 43       	nop			
    c80c:	03 43       	nop			
    c80e:	03 43       	nop			
    c810:	03 43       	nop			
    c812:	03 43       	nop			
    c814:	03 43       	nop			
    c816:	03 43       	nop			
    c818:	03 43       	nop			
    c81a:	03 43       	nop			
    c81c:	03 43       	nop			
    c81e:	03 43       	nop			
    c820:	03 43       	nop			
    c822:	03 43       	nop			
    c824:	03 43       	nop			
    c826:	03 43       	nop			
    c828:	03 43       	nop			
    c82a:	03 43       	nop			
    c82c:	03 43       	nop			
    c82e:	03 43       	nop			
    c830:	03 43       	nop			
    c832:	03 43       	nop			
    c834:	03 43       	nop			
    c836:	03 43       	nop			
    c838:	03 43       	nop			
    c83a:	03 43       	nop			
    c83c:	03 43       	nop			
    c83e:	03 43       	nop			
    c840:	03 43       	nop			
    c842:	03 43       	nop			
    c844:	03 43       	nop			
    c846:	03 43       	nop			
    c848:	03 43       	nop			
    c84a:	03 43       	nop			
    c84c:	03 43       	nop			
    c84e:	03 43       	nop			
    c850:	03 43       	nop			
    c852:	03 43       	nop			
    c854:	03 43       	nop			
    c856:	03 43       	nop			
    c858:	03 43       	nop			
    c85a:	03 43       	nop			
    c85c:	03 43       	nop			
    c85e:	03 43       	nop			
    c860:	03 43       	nop			
    c862:	03 43       	nop			
    c864:	03 43       	nop			
    c866:	03 43       	nop			
    c868:	03 43       	nop			
    c86a:	03 43       	nop			
    c86c:	03 43       	nop			
    c86e:	03 43       	nop			
    c870:	03 43       	nop			
    c872:	03 43       	nop			
    c874:	03 43       	nop			
    c876:	03 43       	nop			
    c878:	03 43       	nop			
    c87a:	03 43       	nop			
    c87c:	03 43       	nop			
    c87e:	03 43       	nop			
    c880:	03 43       	nop			
    c882:	03 43       	nop			
    c884:	03 43       	nop			
    c886:	03 43       	nop			
    c888:	03 43       	nop			
    c88a:	03 43       	nop			
    c88c:	03 43       	nop			
    c88e:	03 43       	nop			
    c890:	03 43       	nop			
    c892:	03 43       	nop			
    c894:	03 43       	nop			
    c896:	03 43       	nop			
    c898:	03 43       	nop			
    c89a:	03 43       	nop			
    c89c:	03 43       	nop			
    c89e:	03 43       	nop			
    c8a0:	03 43       	nop			
    c8a2:	03 43       	nop			
    c8a4:	03 43       	nop			
    c8a6:	03 43       	nop			
    c8a8:	03 43       	nop			
    c8aa:	03 43       	nop			
    c8ac:	03 43       	nop			
    c8ae:	03 43       	nop			
    c8b0:	03 43       	nop			
    c8b2:	03 43       	nop			
    c8b4:	03 43       	nop			
    c8b6:	03 43       	nop			
    c8b8:	03 43       	nop			
    c8ba:	03 43       	nop			
    c8bc:	03 43       	nop			
    c8be:	03 43       	nop			
    c8c0:	03 43       	nop			
    c8c2:	03 43       	nop			
    c8c4:	03 43       	nop			
    c8c6:	03 43       	nop			
    c8c8:	03 43       	nop			
    c8ca:	03 43       	nop			
    c8cc:	03 43       	nop			
    c8ce:	03 43       	nop			
    c8d0:	03 43       	nop			
    c8d2:	03 43       	nop			
    c8d4:	03 43       	nop			
    c8d6:	03 43       	nop			
    c8d8:	03 43       	nop			
    c8da:	03 43       	nop			
    c8dc:	03 43       	nop			
    c8de:	03 43       	nop			
    c8e0:	03 43       	nop			
    c8e2:	03 43       	nop			
    c8e4:	03 43       	nop			
    c8e6:	03 43       	nop			
    c8e8:	03 43       	nop			
    c8ea:	03 43       	nop			
    c8ec:	03 43       	nop			
    c8ee:	03 43       	nop			
    c8f0:	03 43       	nop			
    c8f2:	03 43       	nop			
    c8f4:	03 43       	nop			
    c8f6:	03 43       	nop			
    c8f8:	03 43       	nop			
    c8fa:	03 43       	nop			
    c8fc:	03 43       	nop			
    c8fe:	03 43       	nop			
    c900:	03 43       	nop			
    c902:	03 43       	nop			
    c904:	03 43       	nop			
    c906:	03 43       	nop			
    c908:	03 43       	nop			
    c90a:	03 43       	nop			
    c90c:	03 43       	nop			
    c90e:	03 43       	nop			
    c910:	03 43       	nop			
    c912:	03 43       	nop			
    c914:	03 43       	nop			
    c916:	03 43       	nop			
    c918:	03 43       	nop			
    c91a:	03 43       	nop			
    c91c:	03 43       	nop			
    c91e:	03 43       	nop			
    c920:	03 43       	nop			
    c922:	03 43       	nop			
    c924:	03 43       	nop			
    c926:	03 43       	nop			
    c928:	03 43       	nop			
    c92a:	03 43       	nop			
    c92c:	03 43       	nop			
    c92e:	03 43       	nop			
    c930:	03 43       	nop			
    c932:	03 43       	nop			
    c934:	03 43       	nop			
    c936:	03 43       	nop			
    c938:	03 43       	nop			
    c93a:	03 43       	nop			
    c93c:	03 43       	nop			
    c93e:	03 43       	nop			
    c940:	03 43       	nop			
    c942:	03 43       	nop			
    c944:	03 43       	nop			
    c946:	03 43       	nop			
    c948:	03 43       	nop			
    c94a:	03 43       	nop			
    c94c:	03 43       	nop			
    c94e:	03 43       	nop			
    c950:	03 43       	nop			
    c952:	03 43       	nop			
    c954:	03 43       	nop			
    c956:	03 43       	nop			
    c958:	03 43       	nop			
    c95a:	03 43       	nop			
    c95c:	03 43       	nop			
    c95e:	03 43       	nop			
    c960:	03 43       	nop			
    c962:	03 43       	nop			
    c964:	03 43       	nop			
    c966:	03 43       	nop			
    c968:	03 43       	nop			
    c96a:	03 43       	nop			
    c96c:	03 43       	nop			
    c96e:	03 43       	nop			
    c970:	03 43       	nop			
    c972:	03 43       	nop			
    c974:	03 43       	nop			
    c976:	03 43       	nop			
    c978:	03 43       	nop			
    c97a:	03 43       	nop			
    c97c:	03 43       	nop			
    c97e:	03 43       	nop			
    c980:	03 43       	nop			
    c982:	03 43       	nop			
    c984:	03 43       	nop			
    c986:	03 43       	nop			
    c988:	03 43       	nop			
    c98a:	03 43       	nop			
    c98c:	03 43       	nop			
    c98e:	03 43       	nop			
    c990:	03 43       	nop			
    c992:	03 43       	nop			
    c994:	03 43       	nop			
    c996:	03 43       	nop			
    c998:	03 43       	nop			
    c99a:	03 43       	nop			
    c99c:	03 43       	nop			
    c99e:	03 43       	nop			
    c9a0:	03 43       	nop			
    c9a2:	03 43       	nop			
    c9a4:	03 43       	nop			
    c9a6:	03 43       	nop			
    c9a8:	03 43       	nop			
    c9aa:	03 43       	nop			
    c9ac:	03 43       	nop			
    c9ae:	03 43       	nop			
    c9b0:	03 43       	nop			
    c9b2:	03 43       	nop			
    c9b4:	03 43       	nop			
    c9b6:	03 43       	nop			
    c9b8:	03 43       	nop			
    c9ba:	03 43       	nop			
    c9bc:	03 43       	nop			
    c9be:	03 43       	nop			
    c9c0:	03 43       	nop			
    c9c2:	03 43       	nop			
    c9c4:	03 43       	nop			
    c9c6:	03 43       	nop			
    c9c8:	03 43       	nop			
    c9ca:	03 43       	nop			
    c9cc:	03 43       	nop			
    c9ce:	03 43       	nop			
    c9d0:	03 43       	nop			
    c9d2:	03 43       	nop			
    c9d4:	03 43       	nop			
    c9d6:	03 43       	nop			
    c9d8:	03 43       	nop			
    c9da:	03 43       	nop			
    c9dc:	03 43       	nop			
    c9de:	03 43       	nop			
    c9e0:	03 43       	nop			
    c9e2:	03 43       	nop			
    c9e4:	03 43       	nop			
    c9e6:	03 43       	nop			
    c9e8:	03 43       	nop			
    c9ea:	03 43       	nop			
    c9ec:	03 43       	nop			
    c9ee:	03 43       	nop			
    c9f0:	03 43       	nop			
    c9f2:	03 43       	nop			
    c9f4:	03 43       	nop			
    c9f6:	03 43       	nop			
    c9f8:	03 43       	nop			
    c9fa:	03 43       	nop			
    c9fc:	03 43       	nop			
    c9fe:	03 43       	nop			
    ca00:	03 43       	nop			
    ca02:	03 43       	nop			
    ca04:	03 43       	nop			
    ca06:	03 43       	nop			
    ca08:	03 43       	nop			
    ca0a:	03 43       	nop			
    ca0c:	03 43       	nop			
    ca0e:	03 43       	nop			
    ca10:	03 43       	nop			
    ca12:	03 43       	nop			
    ca14:	03 43       	nop			
    ca16:	03 43       	nop			
    ca18:	03 43       	nop			
    ca1a:	03 43       	nop			
    ca1c:	03 43       	nop			
    ca1e:	03 43       	nop			
    ca20:	03 43       	nop			
    ca22:	03 43       	nop			
    ca24:	03 43       	nop			
    ca26:	03 43       	nop			
    ca28:	03 43       	nop			
    ca2a:	03 43       	nop			
    ca2c:	03 43       	nop			
    ca2e:	03 43       	nop			
    ca30:	03 43       	nop			
    ca32:	03 43       	nop			
    ca34:	03 43       	nop			
    ca36:	03 43       	nop			
    ca38:	03 43       	nop			
    ca3a:	03 43       	nop			
    ca3c:	03 43       	nop			
    ca3e:	03 43       	nop			
    ca40:	03 43       	nop			
    ca42:	03 43       	nop			
    ca44:	03 43       	nop			
    ca46:	03 43       	nop			
    ca48:	03 43       	nop			
    ca4a:	03 43       	nop			
    ca4c:	03 43       	nop			
    ca4e:	03 43       	nop			
    ca50:	03 43       	nop			
    ca52:	03 43       	nop			
    ca54:	03 43       	nop			
    ca56:	03 43       	nop			
    ca58:	03 43       	nop			
    ca5a:	03 43       	nop			
    ca5c:	03 43       	nop			
    ca5e:	03 43       	nop			
    ca60:	03 43       	nop			
    ca62:	03 43       	nop			
    ca64:	03 43       	nop			
    ca66:	03 43       	nop			
    ca68:	03 43       	nop			
    ca6a:	03 43       	nop			
    ca6c:	03 43       	nop			
    ca6e:	03 43       	nop			
    ca70:	03 43       	nop			
    ca72:	03 43       	nop			
    ca74:	03 43       	nop			
    ca76:	03 43       	nop			
    ca78:	03 43       	nop			
    ca7a:	03 43       	nop			
    ca7c:	03 43       	nop			
    ca7e:	03 43       	nop			
    ca80:	03 43       	nop			
    ca82:	03 43       	nop			
    ca84:	03 43       	nop			
    ca86:	03 43       	nop			
    ca88:	03 43       	nop			
    ca8a:	03 43       	nop			
    ca8c:	03 43       	nop			
    ca8e:	03 43       	nop			
    ca90:	03 43       	nop			
    ca92:	03 43       	nop			
    ca94:	03 43       	nop			
    ca96:	03 43       	nop			
    ca98:	03 43       	nop			
    ca9a:	03 43       	nop			
    ca9c:	03 43       	nop			
    ca9e:	03 43       	nop			
    caa0:	03 43       	nop			
    caa2:	03 43       	nop			
    caa4:	03 43       	nop			
    caa6:	03 43       	nop			
    caa8:	03 43       	nop			
    caaa:	03 43       	nop			
    caac:	03 43       	nop			
    caae:	03 43       	nop			
    cab0:	03 43       	nop			
    cab2:	03 43       	nop			
    cab4:	03 43       	nop			
    cab6:	03 43       	nop			
    cab8:	03 43       	nop			
    caba:	03 43       	nop			
    cabc:	03 43       	nop			
    cabe:	03 43       	nop			
    cac0:	03 43       	nop			
    cac2:	03 43       	nop			
    cac4:	03 43       	nop			
    cac6:	03 43       	nop			
    cac8:	03 43       	nop			
    caca:	03 43       	nop			
    cacc:	03 43       	nop			
    cace:	03 43       	nop			
    cad0:	03 43       	nop			
    cad2:	03 43       	nop			
    cad4:	03 43       	nop			
    cad6:	03 43       	nop			
    cad8:	03 43       	nop			
    cada:	03 43       	nop			
    cadc:	03 43       	nop			
    cade:	03 43       	nop			
    cae0:	03 43       	nop			
    cae2:	03 43       	nop			
    cae4:	03 43       	nop			
    cae6:	03 43       	nop			
    cae8:	03 43       	nop			
    caea:	03 43       	nop			
    caec:	03 43       	nop			
    caee:	03 43       	nop			
    caf0:	03 43       	nop			
    caf2:	03 43       	nop			
    caf4:	03 43       	nop			
    caf6:	03 43       	nop			
    caf8:	03 43       	nop			
    cafa:	03 43       	nop			
    cafc:	03 43       	nop			
    cafe:	03 43       	nop			
    cb00:	03 43       	nop			
    cb02:	03 43       	nop			
    cb04:	03 43       	nop			
    cb06:	03 43       	nop			
    cb08:	03 43       	nop			
    cb0a:	03 43       	nop			
    cb0c:	03 43       	nop			
    cb0e:	03 43       	nop			
    cb10:	03 43       	nop			
    cb12:	03 43       	nop			
    cb14:	03 43       	nop			
    cb16:	03 43       	nop			
    cb18:	03 43       	nop			
    cb1a:	03 43       	nop			
    cb1c:	03 43       	nop			
    cb1e:	03 43       	nop			
    cb20:	03 43       	nop			
    cb22:	03 43       	nop			
    cb24:	03 43       	nop			
    cb26:	03 43       	nop			
    cb28:	03 43       	nop			
    cb2a:	03 43       	nop			
    cb2c:	03 43       	nop			
    cb2e:	03 43       	nop			
    cb30:	03 43       	nop			
    cb32:	03 43       	nop			
    cb34:	03 43       	nop			
    cb36:	03 43       	nop			
    cb38:	03 43       	nop			
    cb3a:	03 43       	nop			
    cb3c:	03 43       	nop			
    cb3e:	03 43       	nop			
    cb40:	03 43       	nop			
    cb42:	03 43       	nop			
    cb44:	03 43       	nop			
    cb46:	03 43       	nop			
    cb48:	03 43       	nop			
    cb4a:	03 43       	nop			
    cb4c:	03 43       	nop			
    cb4e:	03 43       	nop			
    cb50:	03 43       	nop			
    cb52:	03 43       	nop			
    cb54:	03 43       	nop			
    cb56:	03 43       	nop			
    cb58:	03 43       	nop			
    cb5a:	03 43       	nop			
    cb5c:	03 43       	nop			
    cb5e:	03 43       	nop			
    cb60:	03 43       	nop			
    cb62:	03 43       	nop			
    cb64:	03 43       	nop			
    cb66:	03 43       	nop			
    cb68:	03 43       	nop			
    cb6a:	03 43       	nop			
    cb6c:	03 43       	nop			
    cb6e:	03 43       	nop			
    cb70:	03 43       	nop			
    cb72:	03 43       	nop			
    cb74:	03 43       	nop			
    cb76:	03 43       	nop			
    cb78:	03 43       	nop			
    cb7a:	03 43       	nop			
    cb7c:	03 43       	nop			
    cb7e:	03 43       	nop			
    cb80:	03 43       	nop			
    cb82:	03 43       	nop			
    cb84:	03 43       	nop			
    cb86:	03 43       	nop			
    cb88:	03 43       	nop			
    cb8a:	03 43       	nop			
    cb8c:	03 43       	nop			
    cb8e:	03 43       	nop			
    cb90:	03 43       	nop			
    cb92:	03 43       	nop			
    cb94:	03 43       	nop			
    cb96:	03 43       	nop			
    cb98:	03 43       	nop			
    cb9a:	03 43       	nop			
    cb9c:	03 43       	nop			
    cb9e:	03 43       	nop			
    cba0:	03 43       	nop			
    cba2:	03 43       	nop			
    cba4:	03 43       	nop			
    cba6:	03 43       	nop			
    cba8:	03 43       	nop			
    cbaa:	03 43       	nop			
    cbac:	03 43       	nop			
    cbae:	03 43       	nop			
    cbb0:	03 43       	nop			
    cbb2:	03 43       	nop			
    cbb4:	03 43       	nop			
    cbb6:	03 43       	nop			
    cbb8:	03 43       	nop			
    cbba:	03 43       	nop			
    cbbc:	03 43       	nop			
    cbbe:	03 43       	nop			
    cbc0:	03 43       	nop			
    cbc2:	03 43       	nop			
    cbc4:	03 43       	nop			
    cbc6:	03 43       	nop			
    cbc8:	03 43       	nop			
    cbca:	03 43       	nop			
    cbcc:	03 43       	nop			
    cbce:	03 43       	nop			
    cbd0:	03 43       	nop			
    cbd2:	03 43       	nop			
    cbd4:	03 43       	nop			
    cbd6:	03 43       	nop			
    cbd8:	03 43       	nop			
    cbda:	03 43       	nop			
    cbdc:	03 43       	nop			
    cbde:	03 43       	nop			
    cbe0:	03 43       	nop			
    cbe2:	03 43       	nop			
    cbe4:	03 43       	nop			
    cbe6:	03 43       	nop			
    cbe8:	03 43       	nop			
    cbea:	03 43       	nop			
    cbec:	03 43       	nop			
    cbee:	03 43       	nop			
    cbf0:	03 43       	nop			
    cbf2:	03 43       	nop			
    cbf4:	03 43       	nop			
    cbf6:	03 43       	nop			
    cbf8:	03 43       	nop			
    cbfa:	03 43       	nop			
    cbfc:	03 43       	nop			
    cbfe:	03 43       	nop			
    cc00:	03 43       	nop			
    cc02:	03 43       	nop			
    cc04:	03 43       	nop			
    cc06:	03 43       	nop			
    cc08:	03 43       	nop			
    cc0a:	03 43       	nop			
    cc0c:	03 43       	nop			
    cc0e:	03 43       	nop			
    cc10:	03 43       	nop			
    cc12:	03 43       	nop			
    cc14:	03 43       	nop			
    cc16:	03 43       	nop			
    cc18:	03 43       	nop			
    cc1a:	03 43       	nop			
    cc1c:	03 43       	nop			
    cc1e:	03 43       	nop			
    cc20:	03 43       	nop			
    cc22:	03 43       	nop			
    cc24:	03 43       	nop			
    cc26:	03 43       	nop			
    cc28:	03 43       	nop			
    cc2a:	03 43       	nop			
    cc2c:	03 43       	nop			
    cc2e:	03 43       	nop			
    cc30:	03 43       	nop			
    cc32:	03 43       	nop			
    cc34:	03 43       	nop			
    cc36:	03 43       	nop			
    cc38:	03 43       	nop			
    cc3a:	03 43       	nop			
    cc3c:	03 43       	nop			
    cc3e:	03 43       	nop			
    cc40:	03 43       	nop			
    cc42:	03 43       	nop			
    cc44:	03 43       	nop			
    cc46:	03 43       	nop			
    cc48:	03 43       	nop			
    cc4a:	03 43       	nop			
    cc4c:	03 43       	nop			
    cc4e:	03 43       	nop			
    cc50:	03 43       	nop			
    cc52:	03 43       	nop			
    cc54:	03 43       	nop			
    cc56:	03 43       	nop			
    cc58:	03 43       	nop			
    cc5a:	03 43       	nop			
    cc5c:	03 43       	nop			
    cc5e:	03 43       	nop			
    cc60:	03 43       	nop			
    cc62:	03 43       	nop			
    cc64:	03 43       	nop			
    cc66:	03 43       	nop			
    cc68:	03 43       	nop			
    cc6a:	03 43       	nop			
    cc6c:	03 43       	nop			
    cc6e:	03 43       	nop			
    cc70:	03 43       	nop			
    cc72:	03 43       	nop			
    cc74:	03 43       	nop			
    cc76:	03 43       	nop			
    cc78:	03 43       	nop			
    cc7a:	03 43       	nop			
    cc7c:	03 43       	nop			
    cc7e:	03 43       	nop			
    cc80:	03 43       	nop			
    cc82:	03 43       	nop			
    cc84:	03 43       	nop			
    cc86:	03 43       	nop			
    cc88:	03 43       	nop			
    cc8a:	03 43       	nop			
    cc8c:	03 43       	nop			
    cc8e:	03 43       	nop			
    cc90:	03 43       	nop			
    cc92:	03 43       	nop			
    cc94:	03 43       	nop			
    cc96:	03 43       	nop			
    cc98:	03 43       	nop			
    cc9a:	03 43       	nop			
    cc9c:	03 43       	nop			
    cc9e:	03 43       	nop			
    cca0:	03 43       	nop			
    cca2:	03 43       	nop			
    cca4:	03 43       	nop			
    cca6:	03 43       	nop			
    cca8:	03 43       	nop			
    ccaa:	03 43       	nop			
    ccac:	03 43       	nop			
    ccae:	03 43       	nop			
    ccb0:	03 43       	nop			
    ccb2:	03 43       	nop			
    ccb4:	03 43       	nop			
    ccb6:	03 43       	nop			
    ccb8:	03 43       	nop			
    ccba:	03 43       	nop			
    ccbc:	03 43       	nop			
    ccbe:	03 43       	nop			
    ccc0:	03 43       	nop			
    ccc2:	03 43       	nop			
    ccc4:	03 43       	nop			
    ccc6:	03 43       	nop			
    ccc8:	03 43       	nop			
    ccca:	03 43       	nop			
    cccc:	03 43       	nop			
    ccce:	03 43       	nop			
    ccd0:	03 43       	nop			
    ccd2:	03 43       	nop			
    ccd4:	03 43       	nop			
    ccd6:	03 43       	nop			
    ccd8:	03 43       	nop			
    ccda:	03 43       	nop			
    ccdc:	03 43       	nop			
    ccde:	03 43       	nop			
    cce0:	03 43       	nop			
    cce2:	03 43       	nop			
    cce4:	03 43       	nop			
    cce6:	03 43       	nop			
    cce8:	03 43       	nop			
    ccea:	03 43       	nop			
    ccec:	03 43       	nop			
    ccee:	03 43       	nop			
    ccf0:	03 43       	nop			
    ccf2:	03 43       	nop			
    ccf4:	03 43       	nop			
    ccf6:	03 43       	nop			
    ccf8:	03 43       	nop			
    ccfa:	03 43       	nop			
    ccfc:	03 43       	nop			
    ccfe:	03 43       	nop			
    cd00:	03 43       	nop			
    cd02:	03 43       	nop			
    cd04:	03 43       	nop			
    cd06:	03 43       	nop			
    cd08:	03 43       	nop			
    cd0a:	03 43       	nop			
    cd0c:	03 43       	nop			
    cd0e:	03 43       	nop			
    cd10:	03 43       	nop			
    cd12:	03 43       	nop			
    cd14:	03 43       	nop			
    cd16:	03 43       	nop			
    cd18:	03 43       	nop			
    cd1a:	03 43       	nop			
    cd1c:	03 43       	nop			
    cd1e:	03 43       	nop			
    cd20:	03 43       	nop			
    cd22:	03 43       	nop			
    cd24:	03 43       	nop			
    cd26:	03 43       	nop			
    cd28:	03 43       	nop			
    cd2a:	03 43       	nop			
    cd2c:	03 43       	nop			
    cd2e:	03 43       	nop			
    cd30:	03 43       	nop			
    cd32:	03 43       	nop			
    cd34:	03 43       	nop			
    cd36:	03 43       	nop			
    cd38:	03 43       	nop			
    cd3a:	03 43       	nop			
    cd3c:	03 43       	nop			
    cd3e:	03 43       	nop			
    cd40:	03 43       	nop			
    cd42:	03 43       	nop			
    cd44:	03 43       	nop			
    cd46:	03 43       	nop			
    cd48:	03 43       	nop			
    cd4a:	03 43       	nop			
    cd4c:	03 43       	nop			
    cd4e:	03 43       	nop			
    cd50:	03 43       	nop			
    cd52:	03 43       	nop			
    cd54:	03 43       	nop			
    cd56:	03 43       	nop			
    cd58:	03 43       	nop			
    cd5a:	03 43       	nop			
    cd5c:	03 43       	nop			
    cd5e:	03 43       	nop			
    cd60:	03 43       	nop			
    cd62:	03 43       	nop			
    cd64:	03 43       	nop			
    cd66:	03 43       	nop			
    cd68:	03 43       	nop			
    cd6a:	03 43       	nop			
    cd6c:	03 43       	nop			
    cd6e:	03 43       	nop			
    cd70:	03 43       	nop			
    cd72:	03 43       	nop			
    cd74:	03 43       	nop			
    cd76:	03 43       	nop			
    cd78:	03 43       	nop			
    cd7a:	03 43       	nop			
    cd7c:	03 43       	nop			
    cd7e:	03 43       	nop			
    cd80:	03 43       	nop			
    cd82:	03 43       	nop			
    cd84:	03 43       	nop			
    cd86:	03 43       	nop			
    cd88:	03 43       	nop			
    cd8a:	03 43       	nop			
    cd8c:	03 43       	nop			
    cd8e:	03 43       	nop			
    cd90:	03 43       	nop			
    cd92:	03 43       	nop			
    cd94:	03 43       	nop			
    cd96:	03 43       	nop			
    cd98:	03 43       	nop			
    cd9a:	03 43       	nop			
    cd9c:	03 43       	nop			
    cd9e:	03 43       	nop			
    cda0:	03 43       	nop			
    cda2:	03 43       	nop			
    cda4:	03 43       	nop			
    cda6:	03 43       	nop			
    cda8:	03 43       	nop			
    cdaa:	03 43       	nop			
    cdac:	03 43       	nop			
    cdae:	03 43       	nop			
    cdb0:	03 43       	nop			
    cdb2:	03 43       	nop			
    cdb4:	03 43       	nop			
    cdb6:	03 43       	nop			
    cdb8:	03 43       	nop			
    cdba:	03 43       	nop			
    cdbc:	03 43       	nop			
    cdbe:	03 43       	nop			
    cdc0:	03 43       	nop			
    cdc2:	03 43       	nop			
    cdc4:	03 43       	nop			
    cdc6:	03 43       	nop			
    cdc8:	03 43       	nop			
    cdca:	03 43       	nop			
    cdcc:	03 43       	nop			
    cdce:	03 43       	nop			
    cdd0:	03 43       	nop			
    cdd2:	03 43       	nop			
    cdd4:	03 43       	nop			
    cdd6:	03 43       	nop			
    cdd8:	03 43       	nop			
    cdda:	03 43       	nop			
    cddc:	03 43       	nop			
    cdde:	03 43       	nop			
    cde0:	03 43       	nop			
    cde2:	03 43       	nop			
    cde4:	03 43       	nop			
    cde6:	03 43       	nop			
    cde8:	03 43       	nop			
    cdea:	03 43       	nop			
    cdec:	03 43       	nop			
    cdee:	03 43       	nop			
    cdf0:	03 43       	nop			
    cdf2:	03 43       	nop			
    cdf4:	03 43       	nop			
    cdf6:	03 43       	nop			
    cdf8:	03 43       	nop			
    cdfa:	03 43       	nop			
    cdfc:	03 43       	nop			
    cdfe:	03 43       	nop			
    ce00:	03 43       	nop			
    ce02:	03 43       	nop			
    ce04:	03 43       	nop			
    ce06:	03 43       	nop			
    ce08:	03 43       	nop			
    ce0a:	03 43       	nop			
    ce0c:	03 43       	nop			
    ce0e:	03 43       	nop			
    ce10:	03 43       	nop			
    ce12:	03 43       	nop			
    ce14:	03 43       	nop			
    ce16:	03 43       	nop			
    ce18:	03 43       	nop			
    ce1a:	03 43       	nop			
    ce1c:	03 43       	nop			
    ce1e:	03 43       	nop			
    ce20:	03 43       	nop			
    ce22:	03 43       	nop			
    ce24:	03 43       	nop			
    ce26:	03 43       	nop			
    ce28:	03 43       	nop			
    ce2a:	03 43       	nop			
    ce2c:	03 43       	nop			
    ce2e:	03 43       	nop			
    ce30:	03 43       	nop			
    ce32:	03 43       	nop			
    ce34:	03 43       	nop			
    ce36:	03 43       	nop			
    ce38:	03 43       	nop			
    ce3a:	03 43       	nop			
    ce3c:	03 43       	nop			
    ce3e:	03 43       	nop			
    ce40:	03 43       	nop			
    ce42:	03 43       	nop			
    ce44:	03 43       	nop			
    ce46:	03 43       	nop			
    ce48:	03 43       	nop			
    ce4a:	03 43       	nop			
    ce4c:	03 43       	nop			
    ce4e:	03 43       	nop			
    ce50:	03 43       	nop			
    ce52:	03 43       	nop			
    ce54:	03 43       	nop			
    ce56:	03 43       	nop			
    ce58:	03 43       	nop			
    ce5a:	03 43       	nop			
    ce5c:	03 43       	nop			
    ce5e:	03 43       	nop			
    ce60:	03 43       	nop			
    ce62:	03 43       	nop			
    ce64:	03 43       	nop			
    ce66:	03 43       	nop			
    ce68:	03 43       	nop			
    ce6a:	03 43       	nop			
    ce6c:	03 43       	nop			
    ce6e:	03 43       	nop			
    ce70:	03 43       	nop			
    ce72:	03 43       	nop			
    ce74:	03 43       	nop			
    ce76:	03 43       	nop			
    ce78:	03 43       	nop			
    ce7a:	03 43       	nop			
    ce7c:	03 43       	nop			
    ce7e:	03 43       	nop			
    ce80:	03 43       	nop			
    ce82:	03 43       	nop			
    ce84:	03 43       	nop			
    ce86:	03 43       	nop			
    ce88:	03 43       	nop			
    ce8a:	03 43       	nop			
    ce8c:	03 43       	nop			
    ce8e:	03 43       	nop			
    ce90:	03 43       	nop			
    ce92:	03 43       	nop			
    ce94:	03 43       	nop			
    ce96:	03 43       	nop			
    ce98:	03 43       	nop			
    ce9a:	03 43       	nop			
    ce9c:	03 43       	nop			
    ce9e:	03 43       	nop			
    cea0:	03 43       	nop			
    cea2:	03 43       	nop			
    cea4:	03 43       	nop			
    cea6:	03 43       	nop			
    cea8:	03 43       	nop			
    ceaa:	03 43       	nop			
    ceac:	03 43       	nop			
    ceae:	03 43       	nop			
    ceb0:	03 43       	nop			
    ceb2:	03 43       	nop			
    ceb4:	03 43       	nop			
    ceb6:	03 43       	nop			
    ceb8:	03 43       	nop			
    ceba:	03 43       	nop			
    cebc:	03 43       	nop			
    cebe:	03 43       	nop			
    cec0:	03 43       	nop			
    cec2:	03 43       	nop			
    cec4:	03 43       	nop			
    cec6:	03 43       	nop			
    cec8:	03 43       	nop			
    ceca:	03 43       	nop			
    cecc:	03 43       	nop			
    cece:	03 43       	nop			
    ced0:	03 43       	nop			
    ced2:	03 43       	nop			
    ced4:	03 43       	nop			
    ced6:	03 43       	nop			
    ced8:	03 43       	nop			
    ceda:	03 43       	nop			
    cedc:	03 43       	nop			
    cede:	03 43       	nop			
    cee0:	03 43       	nop			
    cee2:	03 43       	nop			
    cee4:	03 43       	nop			
    cee6:	03 43       	nop			
    cee8:	03 43       	nop			
    ceea:	03 43       	nop			
    ceec:	03 43       	nop			
    ceee:	03 43       	nop			
    cef0:	03 43       	nop			
    cef2:	03 43       	nop			
    cef4:	03 43       	nop			
    cef6:	03 43       	nop			
    cef8:	03 43       	nop			
    cefa:	03 43       	nop			
    cefc:	03 43       	nop			
    cefe:	03 43       	nop			
    cf00:	03 43       	nop			
    cf02:	03 43       	nop			
    cf04:	03 43       	nop			
    cf06:	03 43       	nop			
    cf08:	03 43       	nop			
    cf0a:	03 43       	nop			
    cf0c:	03 43       	nop			
    cf0e:	03 43       	nop			
    cf10:	03 43       	nop			
    cf12:	03 43       	nop			
    cf14:	03 43       	nop			
    cf16:	03 43       	nop			
    cf18:	03 43       	nop			
    cf1a:	03 43       	nop			
    cf1c:	03 43       	nop			
    cf1e:	03 43       	nop			
    cf20:	03 43       	nop			
    cf22:	03 43       	nop			
    cf24:	03 43       	nop			
    cf26:	03 43       	nop			
    cf28:	03 43       	nop			
    cf2a:	03 43       	nop			
    cf2c:	03 43       	nop			
    cf2e:	03 43       	nop			
    cf30:	03 43       	nop			
    cf32:	03 43       	nop			
    cf34:	03 43       	nop			
    cf36:	03 43       	nop			
    cf38:	03 43       	nop			
    cf3a:	03 43       	nop			
    cf3c:	03 43       	nop			
    cf3e:	03 43       	nop			
    cf40:	03 43       	nop			
    cf42:	03 43       	nop			
    cf44:	03 43       	nop			
    cf46:	03 43       	nop			
    cf48:	03 43       	nop			
    cf4a:	03 43       	nop			
    cf4c:	03 43       	nop			
    cf4e:	03 43       	nop			
    cf50:	03 43       	nop			
    cf52:	03 43       	nop			
    cf54:	03 43       	nop			
    cf56:	03 43       	nop			
    cf58:	03 43       	nop			
    cf5a:	03 43       	nop			
    cf5c:	03 43       	nop			
    cf5e:	03 43       	nop			
    cf60:	03 43       	nop			
    cf62:	03 43       	nop			
    cf64:	03 43       	nop			
    cf66:	03 43       	nop			
    cf68:	03 43       	nop			
    cf6a:	03 43       	nop			
    cf6c:	03 43       	nop			
    cf6e:	03 43       	nop			
    cf70:	03 43       	nop			
    cf72:	03 43       	nop			
    cf74:	03 43       	nop			
    cf76:	03 43       	nop			
    cf78:	03 43       	nop			
    cf7a:	03 43       	nop			
    cf7c:	03 43       	nop			
    cf7e:	03 43       	nop			
    cf80:	03 43       	nop			
    cf82:	03 43       	nop			
    cf84:	03 43       	nop			
    cf86:	03 43       	nop			
    cf88:	03 43       	nop			
    cf8a:	03 43       	nop			
    cf8c:	03 43       	nop			
    cf8e:	03 43       	nop			
    cf90:	03 43       	nop			
    cf92:	03 43       	nop			
    cf94:	03 43       	nop			
    cf96:	03 43       	nop			
    cf98:	03 43       	nop			
    cf9a:	03 43       	nop			
    cf9c:	03 43       	nop			
    cf9e:	03 43       	nop			
    cfa0:	03 43       	nop			
    cfa2:	03 43       	nop			
    cfa4:	03 43       	nop			
    cfa6:	03 43       	nop			
    cfa8:	03 43       	nop			
    cfaa:	03 43       	nop			
    cfac:	03 43       	nop			
    cfae:	03 43       	nop			
    cfb0:	03 43       	nop			
    cfb2:	03 43       	nop			
    cfb4:	03 43       	nop			
    cfb6:	03 43       	nop			
    cfb8:	03 43       	nop			
    cfba:	03 43       	nop			
    cfbc:	03 43       	nop			
    cfbe:	03 43       	nop			
    cfc0:	03 43       	nop			
    cfc2:	03 43       	nop			
    cfc4:	03 43       	nop			
    cfc6:	03 43       	nop			
    cfc8:	03 43       	nop			
    cfca:	03 43       	nop			
    cfcc:	03 43       	nop			
    cfce:	03 43       	nop			
    cfd0:	03 43       	nop			
    cfd2:	03 43       	nop			
    cfd4:	03 43       	nop			
    cfd6:	03 43       	nop			
    cfd8:	03 43       	nop			
    cfda:	03 43       	nop			
    cfdc:	03 43       	nop			
    cfde:	03 43       	nop			
    cfe0:	03 43       	nop			
    cfe2:	03 43       	nop			
    cfe4:	03 43       	nop			
    cfe6:	03 43       	nop			
    cfe8:	03 43       	nop			
    cfea:	03 43       	nop			
    cfec:	03 43       	nop			
    cfee:	03 43       	nop			
    cff0:	03 43       	nop			
    cff2:	03 43       	nop			
    cff4:	03 43       	nop			
    cff6:	03 43       	nop			
    cff8:	03 43       	nop			
    cffa:	03 43       	nop			
    cffc:	03 43       	nop			
    cffe:	03 43       	nop			
    d000:	03 43       	nop			
    d002:	03 43       	nop			
    d004:	03 43       	nop			
    d006:	03 43       	nop			
    d008:	03 43       	nop			
    d00a:	03 43       	nop			
    d00c:	03 43       	nop			
    d00e:	03 43       	nop			
    d010:	03 43       	nop			
    d012:	03 43       	nop			
    d014:	03 43       	nop			
    d016:	03 43       	nop			
    d018:	03 43       	nop			
    d01a:	03 43       	nop			
    d01c:	03 43       	nop			
    d01e:	03 43       	nop			
    d020:	03 43       	nop			
    d022:	03 43       	nop			
    d024:	03 43       	nop			
    d026:	03 43       	nop			
    d028:	03 43       	nop			
    d02a:	03 43       	nop			
    d02c:	03 43       	nop			
    d02e:	03 43       	nop			
    d030:	03 43       	nop			
    d032:	03 43       	nop			
    d034:	03 43       	nop			
    d036:	03 43       	nop			
    d038:	03 43       	nop			
    d03a:	03 43       	nop			
    d03c:	03 43       	nop			
    d03e:	03 43       	nop			
    d040:	03 43       	nop			
    d042:	03 43       	nop			
    d044:	03 43       	nop			
    d046:	03 43       	nop			
    d048:	03 43       	nop			
    d04a:	03 43       	nop			
    d04c:	03 43       	nop			
    d04e:	03 43       	nop			
    d050:	03 43       	nop			
    d052:	03 43       	nop			
    d054:	03 43       	nop			
    d056:	03 43       	nop			
    d058:	03 43       	nop			
    d05a:	03 43       	nop			
    d05c:	03 43       	nop			
    d05e:	03 43       	nop			
    d060:	03 43       	nop			
    d062:	03 43       	nop			
    d064:	03 43       	nop			
    d066:	03 43       	nop			
    d068:	03 43       	nop			
    d06a:	03 43       	nop			
    d06c:	03 43       	nop			
    d06e:	03 43       	nop			
    d070:	03 43       	nop			
    d072:	03 43       	nop			
    d074:	03 43       	nop			
    d076:	03 43       	nop			
    d078:	03 43       	nop			
    d07a:	03 43       	nop			
    d07c:	03 43       	nop			
    d07e:	03 43       	nop			
    d080:	03 43       	nop			
    d082:	03 43       	nop			
    d084:	03 43       	nop			
    d086:	03 43       	nop			
    d088:	03 43       	nop			
    d08a:	03 43       	nop			
    d08c:	03 43       	nop			
    d08e:	03 43       	nop			
    d090:	03 43       	nop			
    d092:	03 43       	nop			
    d094:	03 43       	nop			
    d096:	03 43       	nop			
    d098:	03 43       	nop			
    d09a:	03 43       	nop			
    d09c:	03 43       	nop			
    d09e:	03 43       	nop			
    d0a0:	03 43       	nop			
    d0a2:	03 43       	nop			
    d0a4:	03 43       	nop			
    d0a6:	03 43       	nop			
    d0a8:	03 43       	nop			
    d0aa:	03 43       	nop			
    d0ac:	03 43       	nop			
    d0ae:	03 43       	nop			
    d0b0:	03 43       	nop			
    d0b2:	03 43       	nop			
    d0b4:	03 43       	nop			
    d0b6:	03 43       	nop			
    d0b8:	03 43       	nop			
    d0ba:	03 43       	nop			
    d0bc:	03 43       	nop			
    d0be:	03 43       	nop			
    d0c0:	03 43       	nop			
    d0c2:	03 43       	nop			
    d0c4:	03 43       	nop			
    d0c6:	03 43       	nop			
    d0c8:	03 43       	nop			
    d0ca:	03 43       	nop			
    d0cc:	03 43       	nop			
    d0ce:	03 43       	nop			
    d0d0:	03 43       	nop			
    d0d2:	03 43       	nop			
    d0d4:	03 43       	nop			
    d0d6:	03 43       	nop			
    d0d8:	03 43       	nop			
    d0da:	03 43       	nop			
    d0dc:	03 43       	nop			
    d0de:	03 43       	nop			
    d0e0:	03 43       	nop			
    d0e2:	03 43       	nop			
    d0e4:	03 43       	nop			
    d0e6:	03 43       	nop			
    d0e8:	03 43       	nop			
    d0ea:	03 43       	nop			
    d0ec:	03 43       	nop			
    d0ee:	03 43       	nop			
    d0f0:	03 43       	nop			
    d0f2:	03 43       	nop			
    d0f4:	03 43       	nop			
    d0f6:	03 43       	nop			
    d0f8:	03 43       	nop			
    d0fa:	03 43       	nop			
    d0fc:	03 43       	nop			
    d0fe:	03 43       	nop			
    d100:	03 43       	nop			
    d102:	03 43       	nop			
    d104:	03 43       	nop			
    d106:	03 43       	nop			
    d108:	03 43       	nop			
    d10a:	03 43       	nop			
    d10c:	03 43       	nop			
    d10e:	03 43       	nop			
    d110:	03 43       	nop			
    d112:	03 43       	nop			
    d114:	03 43       	nop			
    d116:	03 43       	nop			
    d118:	03 43       	nop			
    d11a:	03 43       	nop			
    d11c:	03 43       	nop			
    d11e:	03 43       	nop			
    d120:	03 43       	nop			
    d122:	03 43       	nop			
    d124:	03 43       	nop			
    d126:	03 43       	nop			
    d128:	03 43       	nop			
    d12a:	03 43       	nop			
    d12c:	03 43       	nop			
    d12e:	03 43       	nop			
    d130:	03 43       	nop			
    d132:	03 43       	nop			
    d134:	03 43       	nop			
    d136:	03 43       	nop			
    d138:	03 43       	nop			
    d13a:	03 43       	nop			
    d13c:	03 43       	nop			
    d13e:	03 43       	nop			
    d140:	03 43       	nop			
    d142:	03 43       	nop			
    d144:	03 43       	nop			
    d146:	03 43       	nop			
    d148:	03 43       	nop			
    d14a:	03 43       	nop			
    d14c:	03 43       	nop			
    d14e:	03 43       	nop			
    d150:	03 43       	nop			
    d152:	03 43       	nop			
    d154:	03 43       	nop			
    d156:	03 43       	nop			
    d158:	03 43       	nop			
    d15a:	03 43       	nop			
    d15c:	03 43       	nop			
    d15e:	03 43       	nop			
    d160:	03 43       	nop			
    d162:	03 43       	nop			
    d164:	03 43       	nop			
    d166:	03 43       	nop			
    d168:	03 43       	nop			
    d16a:	03 43       	nop			
    d16c:	03 43       	nop			
    d16e:	03 43       	nop			
    d170:	03 43       	nop			
    d172:	03 43       	nop			
    d174:	03 43       	nop			
    d176:	03 43       	nop			
    d178:	03 43       	nop			
    d17a:	03 43       	nop			
    d17c:	03 43       	nop			
    d17e:	03 43       	nop			
    d180:	03 43       	nop			
    d182:	03 43       	nop			
    d184:	03 43       	nop			
    d186:	03 43       	nop			
    d188:	03 43       	nop			
    d18a:	03 43       	nop			
    d18c:	03 43       	nop			
    d18e:	03 43       	nop			
    d190:	03 43       	nop			
    d192:	03 43       	nop			
    d194:	03 43       	nop			
    d196:	03 43       	nop			
    d198:	03 43       	nop			
    d19a:	03 43       	nop			
    d19c:	03 43       	nop			
    d19e:	03 43       	nop			
    d1a0:	03 43       	nop			
    d1a2:	03 43       	nop			
    d1a4:	03 43       	nop			
    d1a6:	03 43       	nop			
    d1a8:	03 43       	nop			
    d1aa:	03 43       	nop			
    d1ac:	03 43       	nop			
    d1ae:	03 43       	nop			
    d1b0:	03 43       	nop			
    d1b2:	03 43       	nop			
    d1b4:	03 43       	nop			
    d1b6:	03 43       	nop			
    d1b8:	03 43       	nop			
    d1ba:	03 43       	nop			
    d1bc:	03 43       	nop			
    d1be:	03 43       	nop			
    d1c0:	03 43       	nop			
    d1c2:	03 43       	nop			
    d1c4:	03 43       	nop			
    d1c6:	03 43       	nop			
    d1c8:	03 43       	nop			
    d1ca:	03 43       	nop			
    d1cc:	03 43       	nop			
    d1ce:	03 43       	nop			
    d1d0:	03 43       	nop			
    d1d2:	03 43       	nop			
    d1d4:	03 43       	nop			
    d1d6:	03 43       	nop			
    d1d8:	03 43       	nop			
    d1da:	03 43       	nop			
    d1dc:	03 43       	nop			
    d1de:	03 43       	nop			
    d1e0:	03 43       	nop			
    d1e2:	03 43       	nop			
    d1e4:	03 43       	nop			
    d1e6:	03 43       	nop			
    d1e8:	03 43       	nop			
    d1ea:	03 43       	nop			
    d1ec:	03 43       	nop			
    d1ee:	03 43       	nop			
    d1f0:	03 43       	nop			
    d1f2:	03 43       	nop			
    d1f4:	03 43       	nop			
    d1f6:	03 43       	nop			
    d1f8:	03 43       	nop			
    d1fa:	03 43       	nop			
    d1fc:	03 43       	nop			
    d1fe:	03 43       	nop			
    d200:	03 43       	nop			
    d202:	03 43       	nop			
    d204:	03 43       	nop			
    d206:	03 43       	nop			
    d208:	03 43       	nop			
    d20a:	03 43       	nop			
    d20c:	03 43       	nop			
    d20e:	03 43       	nop			
    d210:	03 43       	nop			
    d212:	03 43       	nop			
    d214:	03 43       	nop			
    d216:	03 43       	nop			
    d218:	03 43       	nop			
    d21a:	03 43       	nop			
    d21c:	03 43       	nop			
    d21e:	03 43       	nop			
    d220:	03 43       	nop			
    d222:	03 43       	nop			
    d224:	03 43       	nop			
    d226:	03 43       	nop			
    d228:	03 43       	nop			
    d22a:	03 43       	nop			
    d22c:	03 43       	nop			
    d22e:	03 43       	nop			
    d230:	03 43       	nop			
    d232:	03 43       	nop			
    d234:	03 43       	nop			
    d236:	03 43       	nop			
    d238:	03 43       	nop			
    d23a:	03 43       	nop			
    d23c:	03 43       	nop			
    d23e:	03 43       	nop			
    d240:	03 43       	nop			
    d242:	03 43       	nop			
    d244:	03 43       	nop			
    d246:	03 43       	nop			
    d248:	03 43       	nop			
    d24a:	03 43       	nop			
    d24c:	03 43       	nop			
    d24e:	03 43       	nop			
    d250:	03 43       	nop			
    d252:	03 43       	nop			
    d254:	03 43       	nop			
    d256:	03 43       	nop			
    d258:	03 43       	nop			
    d25a:	03 43       	nop			
    d25c:	03 43       	nop			
    d25e:	03 43       	nop			
    d260:	03 43       	nop			
    d262:	03 43       	nop			
    d264:	03 43       	nop			
    d266:	03 43       	nop			
    d268:	03 43       	nop			
    d26a:	03 43       	nop			
    d26c:	03 43       	nop			
    d26e:	03 43       	nop			
    d270:	03 43       	nop			
    d272:	03 43       	nop			
    d274:	03 43       	nop			
    d276:	03 43       	nop			
    d278:	03 43       	nop			
    d27a:	03 43       	nop			
    d27c:	03 43       	nop			
    d27e:	03 43       	nop			
    d280:	03 43       	nop			
    d282:	03 43       	nop			
    d284:	03 43       	nop			
    d286:	03 43       	nop			
    d288:	03 43       	nop			
    d28a:	03 43       	nop			
    d28c:	03 43       	nop			
    d28e:	03 43       	nop			
    d290:	03 43       	nop			
    d292:	03 43       	nop			
    d294:	03 43       	nop			
    d296:	03 43       	nop			
    d298:	03 43       	nop			
    d29a:	03 43       	nop			
    d29c:	03 43       	nop			
    d29e:	03 43       	nop			
    d2a0:	03 43       	nop			
    d2a2:	03 43       	nop			
    d2a4:	03 43       	nop			
    d2a6:	03 43       	nop			
    d2a8:	03 43       	nop			
    d2aa:	03 43       	nop			
    d2ac:	03 43       	nop			
    d2ae:	03 43       	nop			
    d2b0:	03 43       	nop			
    d2b2:	03 43       	nop			
    d2b4:	03 43       	nop			
    d2b6:	03 43       	nop			
    d2b8:	03 43       	nop			
    d2ba:	03 43       	nop			
    d2bc:	03 43       	nop			
    d2be:	03 43       	nop			
    d2c0:	03 43       	nop			
    d2c2:	03 43       	nop			
    d2c4:	03 43       	nop			
    d2c6:	03 43       	nop			
    d2c8:	03 43       	nop			
    d2ca:	03 43       	nop			
    d2cc:	03 43       	nop			
    d2ce:	03 43       	nop			
    d2d0:	03 43       	nop			
    d2d2:	03 43       	nop			
    d2d4:	03 43       	nop			
    d2d6:	03 43       	nop			
    d2d8:	03 43       	nop			
    d2da:	03 43       	nop			
    d2dc:	03 43       	nop			
    d2de:	03 43       	nop			
    d2e0:	03 43       	nop			
    d2e2:	03 43       	nop			
    d2e4:	03 43       	nop			
    d2e6:	03 43       	nop			
    d2e8:	03 43       	nop			
    d2ea:	03 43       	nop			
    d2ec:	03 43       	nop			
    d2ee:	03 43       	nop			
    d2f0:	03 43       	nop			
    d2f2:	03 43       	nop			
    d2f4:	03 43       	nop			
    d2f6:	03 43       	nop			
    d2f8:	03 43       	nop			
    d2fa:	03 43       	nop			
    d2fc:	03 43       	nop			
    d2fe:	03 43       	nop			
    d300:	03 43       	nop			
    d302:	03 43       	nop			
    d304:	03 43       	nop			
    d306:	03 43       	nop			
    d308:	03 43       	nop			
    d30a:	03 43       	nop			
    d30c:	03 43       	nop			
    d30e:	03 43       	nop			
    d310:	03 43       	nop			
    d312:	03 43       	nop			
    d314:	03 43       	nop			
    d316:	03 43       	nop			
    d318:	03 43       	nop			
    d31a:	03 43       	nop			
    d31c:	03 43       	nop			
    d31e:	03 43       	nop			
    d320:	03 43       	nop			
    d322:	03 43       	nop			
    d324:	03 43       	nop			
    d326:	03 43       	nop			
    d328:	03 43       	nop			
    d32a:	03 43       	nop			
    d32c:	03 43       	nop			
    d32e:	03 43       	nop			
    d330:	03 43       	nop			
    d332:	03 43       	nop			
    d334:	03 43       	nop			
    d336:	03 43       	nop			
    d338:	03 43       	nop			
    d33a:	03 43       	nop			
    d33c:	03 43       	nop			
    d33e:	03 43       	nop			
    d340:	03 43       	nop			
    d342:	03 43       	nop			
    d344:	03 43       	nop			
    d346:	03 43       	nop			
    d348:	03 43       	nop			
    d34a:	03 43       	nop			
    d34c:	03 43       	nop			
    d34e:	03 43       	nop			
    d350:	03 43       	nop			
    d352:	03 43       	nop			
    d354:	03 43       	nop			
    d356:	03 43       	nop			
    d358:	03 43       	nop			
    d35a:	03 43       	nop			
    d35c:	03 43       	nop			
    d35e:	03 43       	nop			
    d360:	03 43       	nop			
    d362:	03 43       	nop			
    d364:	03 43       	nop			
    d366:	03 43       	nop			
    d368:	03 43       	nop			
    d36a:	03 43       	nop			
    d36c:	03 43       	nop			
    d36e:	03 43       	nop			
    d370:	03 43       	nop			
    d372:	03 43       	nop			
    d374:	03 43       	nop			
    d376:	03 43       	nop			
    d378:	03 43       	nop			
    d37a:	03 43       	nop			
    d37c:	03 43       	nop			
    d37e:	03 43       	nop			
    d380:	03 43       	nop			
    d382:	03 43       	nop			
    d384:	03 43       	nop			
    d386:	03 43       	nop			
    d388:	03 43       	nop			
    d38a:	03 43       	nop			
    d38c:	03 43       	nop			
    d38e:	03 43       	nop			
    d390:	03 43       	nop			
    d392:	03 43       	nop			
    d394:	03 43       	nop			
    d396:	03 43       	nop			
    d398:	03 43       	nop			
    d39a:	03 43       	nop			
    d39c:	03 43       	nop			
    d39e:	03 43       	nop			
    d3a0:	03 43       	nop			
    d3a2:	03 43       	nop			
    d3a4:	03 43       	nop			
    d3a6:	03 43       	nop			
    d3a8:	03 43       	nop			
    d3aa:	03 43       	nop			
    d3ac:	03 43       	nop			
    d3ae:	03 43       	nop			
    d3b0:	03 43       	nop			
    d3b2:	03 43       	nop			
    d3b4:	03 43       	nop			
    d3b6:	03 43       	nop			
    d3b8:	03 43       	nop			
    d3ba:	03 43       	nop			
    d3bc:	03 43       	nop			
    d3be:	03 43       	nop			
    d3c0:	03 43       	nop			
    d3c2:	03 43       	nop			
    d3c4:	03 43       	nop			
    d3c6:	03 43       	nop			
    d3c8:	03 43       	nop			
    d3ca:	03 43       	nop			
    d3cc:	03 43       	nop			
    d3ce:	03 43       	nop			
    d3d0:	03 43       	nop			
    d3d2:	03 43       	nop			
    d3d4:	03 43       	nop			
    d3d6:	03 43       	nop			
    d3d8:	03 43       	nop			
    d3da:	03 43       	nop			
    d3dc:	03 43       	nop			
    d3de:	03 43       	nop			
    d3e0:	03 43       	nop			
    d3e2:	03 43       	nop			
    d3e4:	03 43       	nop			
    d3e6:	03 43       	nop			
    d3e8:	03 43       	nop			
    d3ea:	03 43       	nop			
    d3ec:	03 43       	nop			
    d3ee:	03 43       	nop			
    d3f0:	03 43       	nop			
    d3f2:	03 43       	nop			
    d3f4:	03 43       	nop			
    d3f6:	03 43       	nop			
    d3f8:	03 43       	nop			
    d3fa:	03 43       	nop			
    d3fc:	03 43       	nop			
    d3fe:	03 43       	nop			
    d400:	03 43       	nop			
    d402:	03 43       	nop			
    d404:	03 43       	nop			
    d406:	03 43       	nop			
    d408:	03 43       	nop			
    d40a:	03 43       	nop			
    d40c:	03 43       	nop			
    d40e:	03 43       	nop			
    d410:	03 43       	nop			
    d412:	03 43       	nop			
    d414:	03 43       	nop			
    d416:	03 43       	nop			
    d418:	03 43       	nop			
    d41a:	03 43       	nop			
    d41c:	03 43       	nop			
    d41e:	03 43       	nop			
    d420:	03 43       	nop			
    d422:	03 43       	nop			
    d424:	03 43       	nop			
    d426:	03 43       	nop			
    d428:	03 43       	nop			
    d42a:	03 43       	nop			
    d42c:	03 43       	nop			
    d42e:	03 43       	nop			
    d430:	03 43       	nop			
    d432:	03 43       	nop			
    d434:	03 43       	nop			
    d436:	03 43       	nop			
    d438:	03 43       	nop			
    d43a:	03 43       	nop			
    d43c:	03 43       	nop			
    d43e:	03 43       	nop			
    d440:	03 43       	nop			
    d442:	03 43       	nop			
    d444:	03 43       	nop			
    d446:	03 43       	nop			
    d448:	03 43       	nop			
    d44a:	03 43       	nop			
    d44c:	03 43       	nop			
    d44e:	03 43       	nop			
    d450:	03 43       	nop			
    d452:	03 43       	nop			
    d454:	03 43       	nop			
    d456:	03 43       	nop			
    d458:	03 43       	nop			
    d45a:	03 43       	nop			
    d45c:	03 43       	nop			
    d45e:	03 43       	nop			
    d460:	03 43       	nop			
    d462:	03 43       	nop			
    d464:	03 43       	nop			
    d466:	03 43       	nop			
    d468:	03 43       	nop			
    d46a:	03 43       	nop			
    d46c:	03 43       	nop			
    d46e:	03 43       	nop			
    d470:	03 43       	nop			
    d472:	03 43       	nop			
    d474:	03 43       	nop			
    d476:	03 43       	nop			
    d478:	03 43       	nop			
    d47a:	03 43       	nop			
    d47c:	03 43       	nop			
    d47e:	03 43       	nop			
    d480:	03 43       	nop			
    d482:	03 43       	nop			
    d484:	03 43       	nop			
    d486:	03 43       	nop			
    d488:	03 43       	nop			
    d48a:	03 43       	nop			
    d48c:	03 43       	nop			
    d48e:	03 43       	nop			
    d490:	03 43       	nop			
    d492:	03 43       	nop			
    d494:	03 43       	nop			
    d496:	03 43       	nop			
    d498:	03 43       	nop			
    d49a:	03 43       	nop			
    d49c:	03 43       	nop			
    d49e:	03 43       	nop			
    d4a0:	03 43       	nop			
    d4a2:	03 43       	nop			
    d4a4:	03 43       	nop			
    d4a6:	03 43       	nop			
    d4a8:	03 43       	nop			
    d4aa:	03 43       	nop			
    d4ac:	03 43       	nop			
    d4ae:	03 43       	nop			
    d4b0:	03 43       	nop			
    d4b2:	03 43       	nop			
    d4b4:	03 43       	nop			
    d4b6:	03 43       	nop			
    d4b8:	03 43       	nop			
    d4ba:	03 43       	nop			
    d4bc:	03 43       	nop			
    d4be:	03 43       	nop			
    d4c0:	03 43       	nop			
    d4c2:	03 43       	nop			
    d4c4:	03 43       	nop			
    d4c6:	03 43       	nop			
    d4c8:	03 43       	nop			
    d4ca:	03 43       	nop			
    d4cc:	03 43       	nop			
    d4ce:	03 43       	nop			
    d4d0:	03 43       	nop			
    d4d2:	03 43       	nop			
    d4d4:	03 43       	nop			
    d4d6:	03 43       	nop			
    d4d8:	03 43       	nop			
    d4da:	03 43       	nop			
    d4dc:	03 43       	nop			
    d4de:	03 43       	nop			
    d4e0:	03 43       	nop			
    d4e2:	03 43       	nop			
    d4e4:	03 43       	nop			
    d4e6:	03 43       	nop			
    d4e8:	03 43       	nop			
    d4ea:	03 43       	nop			
    d4ec:	03 43       	nop			
    d4ee:	03 43       	nop			
    d4f0:	03 43       	nop			
    d4f2:	03 43       	nop			
    d4f4:	03 43       	nop			
    d4f6:	03 43       	nop			
    d4f8:	03 43       	nop			
    d4fa:	03 43       	nop			
    d4fc:	03 43       	nop			
    d4fe:	03 43       	nop			
    d500:	03 43       	nop			
    d502:	03 43       	nop			
    d504:	03 43       	nop			
    d506:	03 43       	nop			
    d508:	03 43       	nop			
    d50a:	03 43       	nop			
    d50c:	03 43       	nop			
    d50e:	03 43       	nop			
    d510:	03 43       	nop			
    d512:	03 43       	nop			
    d514:	03 43       	nop			
    d516:	03 43       	nop			
    d518:	03 43       	nop			
    d51a:	03 43       	nop			
    d51c:	03 43       	nop			
    d51e:	03 43       	nop			
    d520:	03 43       	nop			
    d522:	03 43       	nop			
    d524:	03 43       	nop			
    d526:	03 43       	nop			
    d528:	03 43       	nop			
    d52a:	03 43       	nop			
    d52c:	03 43       	nop			
    d52e:	03 43       	nop			
    d530:	03 43       	nop			
    d532:	03 43       	nop			
    d534:	03 43       	nop			
    d536:	03 43       	nop			
    d538:	03 43       	nop			
    d53a:	03 43       	nop			
    d53c:	03 43       	nop			
    d53e:	03 43       	nop			
    d540:	03 43       	nop			
    d542:	03 43       	nop			
    d544:	03 43       	nop			
    d546:	03 43       	nop			
    d548:	03 43       	nop			
    d54a:	03 43       	nop			
    d54c:	03 43       	nop			
    d54e:	03 43       	nop			
    d550:	03 43       	nop			
    d552:	03 43       	nop			
    d554:	03 43       	nop			
    d556:	03 43       	nop			
    d558:	03 43       	nop			
    d55a:	03 43       	nop			
    d55c:	03 43       	nop			
    d55e:	03 43       	nop			
    d560:	03 43       	nop			
    d562:	03 43       	nop			
    d564:	03 43       	nop			
    d566:	03 43       	nop			
    d568:	03 43       	nop			
    d56a:	03 43       	nop			
    d56c:	03 43       	nop			
    d56e:	03 43       	nop			
    d570:	03 43       	nop			
    d572:	03 43       	nop			
    d574:	03 43       	nop			
    d576:	03 43       	nop			
    d578:	03 43       	nop			
    d57a:	03 43       	nop			
    d57c:	03 43       	nop			
    d57e:	03 43       	nop			
    d580:	03 43       	nop			
    d582:	03 43       	nop			
    d584:	03 43       	nop			
    d586:	03 43       	nop			
    d588:	03 43       	nop			
    d58a:	03 43       	nop			
    d58c:	03 43       	nop			
    d58e:	03 43       	nop			
    d590:	03 43       	nop			
    d592:	03 43       	nop			
    d594:	03 43       	nop			
    d596:	03 43       	nop			
    d598:	03 43       	nop			
    d59a:	03 43       	nop			
    d59c:	03 43       	nop			
    d59e:	03 43       	nop			
    d5a0:	03 43       	nop			
    d5a2:	03 43       	nop			
    d5a4:	03 43       	nop			
    d5a6:	03 43       	nop			
    d5a8:	03 43       	nop			
    d5aa:	03 43       	nop			
    d5ac:	03 43       	nop			
    d5ae:	03 43       	nop			
    d5b0:	03 43       	nop			
    d5b2:	03 43       	nop			
    d5b4:	03 43       	nop			
    d5b6:	03 43       	nop			
    d5b8:	03 43       	nop			
    d5ba:	03 43       	nop			
    d5bc:	03 43       	nop			
    d5be:	03 43       	nop			
    d5c0:	03 43       	nop			
    d5c2:	03 43       	nop			
    d5c4:	03 43       	nop			
    d5c6:	03 43       	nop			
    d5c8:	03 43       	nop			
    d5ca:	03 43       	nop			
    d5cc:	03 43       	nop			
    d5ce:	03 43       	nop			
    d5d0:	03 43       	nop			
    d5d2:	03 43       	nop			
    d5d4:	03 43       	nop			
    d5d6:	03 43       	nop			
    d5d8:	03 43       	nop			
    d5da:	03 43       	nop			
    d5dc:	03 43       	nop			
    d5de:	03 43       	nop			
    d5e0:	03 43       	nop			
    d5e2:	03 43       	nop			
    d5e4:	03 43       	nop			
    d5e6:	03 43       	nop			
    d5e8:	03 43       	nop			
    d5ea:	03 43       	nop			
    d5ec:	03 43       	nop			
    d5ee:	03 43       	nop			
    d5f0:	03 43       	nop			
    d5f2:	03 43       	nop			
    d5f4:	03 43       	nop			
    d5f6:	03 43       	nop			
    d5f8:	03 43       	nop			
    d5fa:	03 43       	nop			
    d5fc:	03 43       	nop			
    d5fe:	03 43       	nop			
    d600:	03 43       	nop			
    d602:	03 43       	nop			
    d604:	03 43       	nop			
    d606:	03 43       	nop			
    d608:	03 43       	nop			
    d60a:	03 43       	nop			
    d60c:	03 43       	nop			
    d60e:	03 43       	nop			
    d610:	03 43       	nop			
    d612:	03 43       	nop			
    d614:	03 43       	nop			
    d616:	03 43       	nop			
    d618:	03 43       	nop			
    d61a:	03 43       	nop			
    d61c:	03 43       	nop			
    d61e:	03 43       	nop			
    d620:	03 43       	nop			
    d622:	03 43       	nop			
    d624:	03 43       	nop			
    d626:	03 43       	nop			
    d628:	03 43       	nop			
    d62a:	03 43       	nop			
    d62c:	03 43       	nop			
    d62e:	03 43       	nop			
    d630:	03 43       	nop			
    d632:	03 43       	nop			
    d634:	03 43       	nop			
    d636:	03 43       	nop			
    d638:	03 43       	nop			
    d63a:	03 43       	nop			
    d63c:	03 43       	nop			
    d63e:	03 43       	nop			
    d640:	03 43       	nop			
    d642:	03 43       	nop			
    d644:	03 43       	nop			
    d646:	03 43       	nop			
    d648:	03 43       	nop			
    d64a:	03 43       	nop			
    d64c:	03 43       	nop			
    d64e:	03 43       	nop			
    d650:	03 43       	nop			
    d652:	03 43       	nop			
    d654:	03 43       	nop			
    d656:	03 43       	nop			
    d658:	03 43       	nop			
    d65a:	03 43       	nop			
    d65c:	03 43       	nop			
    d65e:	03 43       	nop			
    d660:	03 43       	nop			
    d662:	03 43       	nop			
    d664:	03 43       	nop			
    d666:	03 43       	nop			
    d668:	03 43       	nop			
    d66a:	03 43       	nop			
    d66c:	03 43       	nop			
    d66e:	03 43       	nop			
    d670:	03 43       	nop			
    d672:	03 43       	nop			
    d674:	03 43       	nop			
    d676:	03 43       	nop			
    d678:	03 43       	nop			
    d67a:	03 43       	nop			
    d67c:	03 43       	nop			
    d67e:	03 43       	nop			
    d680:	03 43       	nop			
    d682:	03 43       	nop			
    d684:	03 43       	nop			
    d686:	03 43       	nop			
    d688:	03 43       	nop			
    d68a:	03 43       	nop			
    d68c:	03 43       	nop			
    d68e:	03 43       	nop			
    d690:	03 43       	nop			
    d692:	03 43       	nop			
    d694:	03 43       	nop			
    d696:	03 43       	nop			
    d698:	03 43       	nop			
    d69a:	03 43       	nop			
    d69c:	03 43       	nop			
    d69e:	03 43       	nop			
    d6a0:	03 43       	nop			
    d6a2:	03 43       	nop			
    d6a4:	03 43       	nop			
    d6a6:	03 43       	nop			
    d6a8:	03 43       	nop			
    d6aa:	03 43       	nop			
    d6ac:	03 43       	nop			
    d6ae:	03 43       	nop			
    d6b0:	03 43       	nop			
    d6b2:	03 43       	nop			
    d6b4:	03 43       	nop			
    d6b6:	03 43       	nop			
    d6b8:	03 43       	nop			
    d6ba:	03 43       	nop			
    d6bc:	03 43       	nop			
    d6be:	03 43       	nop			
    d6c0:	03 43       	nop			
    d6c2:	03 43       	nop			
    d6c4:	03 43       	nop			
    d6c6:	03 43       	nop			
    d6c8:	03 43       	nop			
    d6ca:	03 43       	nop			
    d6cc:	03 43       	nop			
    d6ce:	03 43       	nop			
    d6d0:	03 43       	nop			
    d6d2:	03 43       	nop			
    d6d4:	03 43       	nop			
    d6d6:	03 43       	nop			
    d6d8:	03 43       	nop			
    d6da:	03 43       	nop			
    d6dc:	03 43       	nop			
    d6de:	03 43       	nop			
    d6e0:	03 43       	nop			
    d6e2:	03 43       	nop			
    d6e4:	03 43       	nop			
    d6e6:	03 43       	nop			
    d6e8:	03 43       	nop			
    d6ea:	03 43       	nop			
    d6ec:	03 43       	nop			
    d6ee:	03 43       	nop			
    d6f0:	03 43       	nop			
    d6f2:	03 43       	nop			
    d6f4:	03 43       	nop			
    d6f6:	03 43       	nop			
    d6f8:	03 43       	nop			
    d6fa:	03 43       	nop			
    d6fc:	03 43       	nop			
    d6fe:	03 43       	nop			
    d700:	03 43       	nop			
    d702:	03 43       	nop			
    d704:	03 43       	nop			
    d706:	03 43       	nop			
    d708:	03 43       	nop			
    d70a:	03 43       	nop			
    d70c:	03 43       	nop			
    d70e:	03 43       	nop			
    d710:	03 43       	nop			
    d712:	03 43       	nop			
    d714:	03 43       	nop			
    d716:	03 43       	nop			
    d718:	03 43       	nop			
    d71a:	03 43       	nop			
    d71c:	03 43       	nop			
    d71e:	03 43       	nop			
    d720:	03 43       	nop			
    d722:	03 43       	nop			
    d724:	03 43       	nop			
    d726:	03 43       	nop			
    d728:	03 43       	nop			
    d72a:	03 43       	nop			
    d72c:	03 43       	nop			
    d72e:	03 43       	nop			
    d730:	03 43       	nop			
    d732:	03 43       	nop			
    d734:	03 43       	nop			
    d736:	03 43       	nop			
    d738:	03 43       	nop			
    d73a:	03 43       	nop			
    d73c:	03 43       	nop			
    d73e:	03 43       	nop			
    d740:	03 43       	nop			
    d742:	03 43       	nop			
    d744:	03 43       	nop			
    d746:	03 43       	nop			
    d748:	03 43       	nop			
    d74a:	03 43       	nop			
    d74c:	03 43       	nop			
    d74e:	03 43       	nop			
    d750:	03 43       	nop			
    d752:	03 43       	nop			
    d754:	03 43       	nop			
    d756:	03 43       	nop			
    d758:	03 43       	nop			
    d75a:	03 43       	nop			
    d75c:	03 43       	nop			
    d75e:	03 43       	nop			
    d760:	03 43       	nop			
    d762:	03 43       	nop			
    d764:	03 43       	nop			
    d766:	03 43       	nop			
    d768:	03 43       	nop			
    d76a:	03 43       	nop			
    d76c:	03 43       	nop			
    d76e:	03 43       	nop			
    d770:	03 43       	nop			
    d772:	03 43       	nop			
    d774:	03 43       	nop			
    d776:	03 43       	nop			
    d778:	03 43       	nop			
    d77a:	03 43       	nop			
    d77c:	03 43       	nop			
    d77e:	03 43       	nop			
    d780:	03 43       	nop			
    d782:	03 43       	nop			
    d784:	03 43       	nop			
    d786:	03 43       	nop			
    d788:	03 43       	nop			
    d78a:	03 43       	nop			
    d78c:	03 43       	nop			
    d78e:	03 43       	nop			
    d790:	03 43       	nop			
    d792:	03 43       	nop			
    d794:	03 43       	nop			
    d796:	03 43       	nop			
    d798:	03 43       	nop			
    d79a:	03 43       	nop			
    d79c:	03 43       	nop			
    d79e:	03 43       	nop			
    d7a0:	03 43       	nop			
    d7a2:	03 43       	nop			
    d7a4:	03 43       	nop			
    d7a6:	03 43       	nop			
    d7a8:	03 43       	nop			
    d7aa:	03 43       	nop			
    d7ac:	03 43       	nop			
    d7ae:	03 43       	nop			
    d7b0:	03 43       	nop			
    d7b2:	03 43       	nop			
    d7b4:	03 43       	nop			
    d7b6:	03 43       	nop			
    d7b8:	03 43       	nop			
    d7ba:	03 43       	nop			
    d7bc:	03 43       	nop			
    d7be:	03 43       	nop			
    d7c0:	03 43       	nop			
    d7c2:	03 43       	nop			
    d7c4:	03 43       	nop			
    d7c6:	03 43       	nop			
    d7c8:	03 43       	nop			
    d7ca:	03 43       	nop			
    d7cc:	03 43       	nop			
    d7ce:	03 43       	nop			
    d7d0:	03 43       	nop			
    d7d2:	03 43       	nop			
    d7d4:	03 43       	nop			
    d7d6:	03 43       	nop			
    d7d8:	03 43       	nop			
    d7da:	03 43       	nop			
    d7dc:	03 43       	nop			
    d7de:	03 43       	nop			
    d7e0:	03 43       	nop			
    d7e2:	03 43       	nop			
    d7e4:	03 43       	nop			
    d7e6:	03 43       	nop			
    d7e8:	03 43       	nop			
    d7ea:	03 43       	nop			
    d7ec:	03 43       	nop			
    d7ee:	03 43       	nop			
    d7f0:	03 43       	nop			
    d7f2:	03 43       	nop			
    d7f4:	03 43       	nop			
    d7f6:	03 43       	nop			
    d7f8:	03 43       	nop			
    d7fa:	03 43       	nop			
    d7fc:	03 43       	nop			
    d7fe:	03 43       	nop			
    d800:	03 43       	nop			
    d802:	03 43       	nop			
    d804:	03 43       	nop			
    d806:	03 43       	nop			
    d808:	03 43       	nop			
    d80a:	03 43       	nop			
    d80c:	03 43       	nop			
    d80e:	03 43       	nop			
    d810:	03 43       	nop			
    d812:	03 43       	nop			
    d814:	03 43       	nop			
    d816:	03 43       	nop			
    d818:	03 43       	nop			
    d81a:	03 43       	nop			
    d81c:	03 43       	nop			
    d81e:	03 43       	nop			
    d820:	03 43       	nop			
    d822:	03 43       	nop			
    d824:	03 43       	nop			
    d826:	03 43       	nop			
    d828:	03 43       	nop			
    d82a:	03 43       	nop			
    d82c:	03 43       	nop			
    d82e:	03 43       	nop			
    d830:	03 43       	nop			
    d832:	03 43       	nop			
    d834:	03 43       	nop			
    d836:	03 43       	nop			
    d838:	03 43       	nop			
    d83a:	03 43       	nop			
    d83c:	03 43       	nop			
    d83e:	03 43       	nop			
    d840:	03 43       	nop			
    d842:	03 43       	nop			
    d844:	03 43       	nop			
    d846:	03 43       	nop			
    d848:	03 43       	nop			
    d84a:	03 43       	nop			
    d84c:	03 43       	nop			
    d84e:	03 43       	nop			
    d850:	03 43       	nop			
    d852:	03 43       	nop			
    d854:	03 43       	nop			
    d856:	03 43       	nop			
    d858:	03 43       	nop			
    d85a:	03 43       	nop			
    d85c:	03 43       	nop			
    d85e:	03 43       	nop			
    d860:	03 43       	nop			
    d862:	03 43       	nop			
    d864:	03 43       	nop			
    d866:	03 43       	nop			
    d868:	03 43       	nop			
    d86a:	03 43       	nop			
    d86c:	03 43       	nop			
    d86e:	03 43       	nop			
    d870:	03 43       	nop			
    d872:	03 43       	nop			
    d874:	03 43       	nop			
    d876:	03 43       	nop			
    d878:	03 43       	nop			
    d87a:	03 43       	nop			
    d87c:	03 43       	nop			
    d87e:	03 43       	nop			
    d880:	03 43       	nop			
    d882:	03 43       	nop			
    d884:	03 43       	nop			
    d886:	03 43       	nop			
    d888:	03 43       	nop			
    d88a:	03 43       	nop			
    d88c:	03 43       	nop			
    d88e:	03 43       	nop			
    d890:	03 43       	nop			
    d892:	03 43       	nop			
    d894:	03 43       	nop			
    d896:	03 43       	nop			
    d898:	03 43       	nop			
    d89a:	03 43       	nop			
    d89c:	03 43       	nop			
    d89e:	03 43       	nop			
    d8a0:	03 43       	nop			
    d8a2:	03 43       	nop			
    d8a4:	03 43       	nop			
    d8a6:	03 43       	nop			
    d8a8:	03 43       	nop			
    d8aa:	03 43       	nop			
    d8ac:	03 43       	nop			
    d8ae:	03 43       	nop			
    d8b0:	03 43       	nop			
    d8b2:	03 43       	nop			
    d8b4:	03 43       	nop			
    d8b6:	03 43       	nop			
    d8b8:	03 43       	nop			
    d8ba:	03 43       	nop			
    d8bc:	03 43       	nop			
    d8be:	03 43       	nop			
    d8c0:	03 43       	nop			
    d8c2:	03 43       	nop			
    d8c4:	03 43       	nop			
    d8c6:	03 43       	nop			
    d8c8:	03 43       	nop			
    d8ca:	03 43       	nop			
    d8cc:	03 43       	nop			
    d8ce:	03 43       	nop			
    d8d0:	03 43       	nop			
    d8d2:	03 43       	nop			
    d8d4:	03 43       	nop			
    d8d6:	03 43       	nop			
    d8d8:	03 43       	nop			
    d8da:	03 43       	nop			
    d8dc:	03 43       	nop			
    d8de:	03 43       	nop			
    d8e0:	03 43       	nop			
    d8e2:	03 43       	nop			
    d8e4:	03 43       	nop			
    d8e6:	03 43       	nop			
    d8e8:	03 43       	nop			
    d8ea:	03 43       	nop			
    d8ec:	03 43       	nop			
    d8ee:	03 43       	nop			
    d8f0:	03 43       	nop			
    d8f2:	03 43       	nop			
    d8f4:	03 43       	nop			
    d8f6:	03 43       	nop			
    d8f8:	03 43       	nop			
    d8fa:	03 43       	nop			
    d8fc:	03 43       	nop			
    d8fe:	03 43       	nop			
    d900:	03 43       	nop			
    d902:	03 43       	nop			
    d904:	03 43       	nop			
    d906:	03 43       	nop			
    d908:	03 43       	nop			
    d90a:	03 43       	nop			
    d90c:	03 43       	nop			
    d90e:	03 43       	nop			
    d910:	03 43       	nop			
    d912:	03 43       	nop			
    d914:	03 43       	nop			
    d916:	03 43       	nop			
    d918:	03 43       	nop			
    d91a:	03 43       	nop			
    d91c:	03 43       	nop			
    d91e:	03 43       	nop			
    d920:	03 43       	nop			
    d922:	03 43       	nop			
    d924:	03 43       	nop			
    d926:	03 43       	nop			
    d928:	03 43       	nop			
    d92a:	03 43       	nop			
    d92c:	03 43       	nop			
    d92e:	03 43       	nop			
    d930:	03 43       	nop			
    d932:	03 43       	nop			
    d934:	03 43       	nop			
    d936:	03 43       	nop			
    d938:	03 43       	nop			
    d93a:	03 43       	nop			
    d93c:	03 43       	nop			
    d93e:	03 43       	nop			
    d940:	03 43       	nop			
    d942:	03 43       	nop			
    d944:	03 43       	nop			
    d946:	03 43       	nop			
    d948:	03 43       	nop			
    d94a:	03 43       	nop			
    d94c:	03 43       	nop			
    d94e:	03 43       	nop			
    d950:	03 43       	nop			
    d952:	03 43       	nop			
    d954:	03 43       	nop			
    d956:	03 43       	nop			
    d958:	03 43       	nop			
    d95a:	03 43       	nop			
    d95c:	03 43       	nop			
    d95e:	03 43       	nop			
    d960:	03 43       	nop			
    d962:	03 43       	nop			
    d964:	03 43       	nop			
    d966:	03 43       	nop			
    d968:	03 43       	nop			
    d96a:	03 43       	nop			
    d96c:	03 43       	nop			
    d96e:	03 43       	nop			
    d970:	03 43       	nop			
    d972:	03 43       	nop			
    d974:	03 43       	nop			
    d976:	03 43       	nop			
    d978:	03 43       	nop			
    d97a:	03 43       	nop			
    d97c:	03 43       	nop			
    d97e:	03 43       	nop			
    d980:	03 43       	nop			
    d982:	03 43       	nop			
    d984:	03 43       	nop			
    d986:	03 43       	nop			
    d988:	03 43       	nop			
    d98a:	03 43       	nop			
    d98c:	03 43       	nop			
    d98e:	03 43       	nop			
    d990:	03 43       	nop			
    d992:	03 43       	nop			
    d994:	03 43       	nop			
    d996:	03 43       	nop			
    d998:	03 43       	nop			
    d99a:	03 43       	nop			
    d99c:	03 43       	nop			
    d99e:	03 43       	nop			
    d9a0:	03 43       	nop			
    d9a2:	03 43       	nop			
    d9a4:	03 43       	nop			
    d9a6:	03 43       	nop			
    d9a8:	03 43       	nop			
    d9aa:	03 43       	nop			
    d9ac:	03 43       	nop			
    d9ae:	03 43       	nop			
    d9b0:	03 43       	nop			
    d9b2:	03 43       	nop			
    d9b4:	03 43       	nop			
    d9b6:	03 43       	nop			
    d9b8:	03 43       	nop			
    d9ba:	03 43       	nop			
    d9bc:	03 43       	nop			
    d9be:	03 43       	nop			
    d9c0:	03 43       	nop			
    d9c2:	03 43       	nop			
    d9c4:	03 43       	nop			
    d9c6:	03 43       	nop			
    d9c8:	03 43       	nop			
    d9ca:	03 43       	nop			
    d9cc:	03 43       	nop			
    d9ce:	03 43       	nop			
    d9d0:	03 43       	nop			
    d9d2:	03 43       	nop			
    d9d4:	03 43       	nop			
    d9d6:	03 43       	nop			
    d9d8:	03 43       	nop			
    d9da:	03 43       	nop			
    d9dc:	03 43       	nop			
    d9de:	03 43       	nop			
    d9e0:	03 43       	nop			
    d9e2:	03 43       	nop			
    d9e4:	03 43       	nop			
    d9e6:	03 43       	nop			
    d9e8:	03 43       	nop			
    d9ea:	03 43       	nop			
    d9ec:	03 43       	nop			
    d9ee:	03 43       	nop			
    d9f0:	03 43       	nop			
    d9f2:	03 43       	nop			
    d9f4:	03 43       	nop			
    d9f6:	03 43       	nop			
    d9f8:	03 43       	nop			
    d9fa:	03 43       	nop			
    d9fc:	03 43       	nop			
    d9fe:	03 43       	nop			
    da00:	03 43       	nop			
    da02:	03 43       	nop			
    da04:	03 43       	nop			
    da06:	03 43       	nop			
    da08:	03 43       	nop			
    da0a:	03 43       	nop			
    da0c:	03 43       	nop			
    da0e:	03 43       	nop			
    da10:	03 43       	nop			
    da12:	03 43       	nop			
    da14:	03 43       	nop			
    da16:	03 43       	nop			
    da18:	03 43       	nop			
    da1a:	03 43       	nop			
    da1c:	03 43       	nop			
    da1e:	03 43       	nop			
    da20:	03 43       	nop			
    da22:	03 43       	nop			
    da24:	03 43       	nop			
    da26:	03 43       	nop			
    da28:	03 43       	nop			
    da2a:	03 43       	nop			
    da2c:	03 43       	nop			
    da2e:	03 43       	nop			
    da30:	03 43       	nop			
    da32:	03 43       	nop			
    da34:	03 43       	nop			
    da36:	03 43       	nop			
    da38:	03 43       	nop			
    da3a:	03 43       	nop			
    da3c:	03 43       	nop			
    da3e:	03 43       	nop			
    da40:	03 43       	nop			
    da42:	03 43       	nop			
    da44:	03 43       	nop			
    da46:	03 43       	nop			
    da48:	03 43       	nop			
    da4a:	03 43       	nop			
    da4c:	03 43       	nop			
    da4e:	03 43       	nop			
    da50:	03 43       	nop			
    da52:	03 43       	nop			
    da54:	03 43       	nop			
    da56:	03 43       	nop			
    da58:	03 43       	nop			
    da5a:	03 43       	nop			
    da5c:	03 43       	nop			
    da5e:	03 43       	nop			
    da60:	03 43       	nop			
    da62:	03 43       	nop			
    da64:	03 43       	nop			
    da66:	03 43       	nop			
    da68:	03 43       	nop			
    da6a:	03 43       	nop			
    da6c:	03 43       	nop			
    da6e:	03 43       	nop			
    da70:	03 43       	nop			
    da72:	03 43       	nop			
    da74:	03 43       	nop			
    da76:	03 43       	nop			
    da78:	03 43       	nop			
    da7a:	03 43       	nop			
    da7c:	03 43       	nop			
    da7e:	03 43       	nop			
    da80:	03 43       	nop			
    da82:	03 43       	nop			
    da84:	03 43       	nop			
    da86:	03 43       	nop			
    da88:	03 43       	nop			
    da8a:	03 43       	nop			
    da8c:	03 43       	nop			
    da8e:	03 43       	nop			
    da90:	03 43       	nop			
    da92:	03 43       	nop			
    da94:	03 43       	nop			
    da96:	03 43       	nop			
    da98:	03 43       	nop			
    da9a:	03 43       	nop			
    da9c:	03 43       	nop			
    da9e:	03 43       	nop			
    daa0:	03 43       	nop			
    daa2:	03 43       	nop			
    daa4:	03 43       	nop			
    daa6:	03 43       	nop			
    daa8:	03 43       	nop			
    daaa:	03 43       	nop			
    daac:	03 43       	nop			
    daae:	03 43       	nop			
    dab0:	03 43       	nop			
    dab2:	03 43       	nop			
    dab4:	03 43       	nop			
    dab6:	03 43       	nop			
    dab8:	03 43       	nop			
    daba:	03 43       	nop			
    dabc:	03 43       	nop			
    dabe:	03 43       	nop			
    dac0:	03 43       	nop			
    dac2:	03 43       	nop			
    dac4:	03 43       	nop			
    dac6:	03 43       	nop			
    dac8:	03 43       	nop			
    daca:	03 43       	nop			
    dacc:	03 43       	nop			
    dace:	03 43       	nop			
    dad0:	03 43       	nop			
    dad2:	03 43       	nop			
    dad4:	03 43       	nop			
    dad6:	03 43       	nop			
    dad8:	03 43       	nop			
    dada:	03 43       	nop			
    dadc:	03 43       	nop			
    dade:	03 43       	nop			
    dae0:	03 43       	nop			
    dae2:	03 43       	nop			
    dae4:	03 43       	nop			
    dae6:	03 43       	nop			
    dae8:	03 43       	nop			
    daea:	03 43       	nop			
    daec:	03 43       	nop			
    daee:	03 43       	nop			
    daf0:	03 43       	nop			
    daf2:	03 43       	nop			
    daf4:	03 43       	nop			
    daf6:	03 43       	nop			
    daf8:	03 43       	nop			
    dafa:	03 43       	nop			
    dafc:	03 43       	nop			
    dafe:	03 43       	nop			
    db00:	03 43       	nop			
    db02:	03 43       	nop			
    db04:	03 43       	nop			
    db06:	03 43       	nop			
    db08:	03 43       	nop			
    db0a:	03 43       	nop			
    db0c:	03 43       	nop			
    db0e:	03 43       	nop			
    db10:	03 43       	nop			
    db12:	03 43       	nop			
    db14:	03 43       	nop			
    db16:	03 43       	nop			
    db18:	03 43       	nop			
    db1a:	03 43       	nop			
    db1c:	03 43       	nop			
    db1e:	03 43       	nop			
    db20:	03 43       	nop			
    db22:	03 43       	nop			
    db24:	03 43       	nop			
    db26:	03 43       	nop			
    db28:	03 43       	nop			
    db2a:	03 43       	nop			
    db2c:	03 43       	nop			
    db2e:	03 43       	nop			
    db30:	03 43       	nop			
    db32:	03 43       	nop			
    db34:	03 43       	nop			
    db36:	03 43       	nop			
    db38:	03 43       	nop			
    db3a:	03 43       	nop			
    db3c:	03 43       	nop			
    db3e:	03 43       	nop			
    db40:	03 43       	nop			
    db42:	03 43       	nop			
    db44:	03 43       	nop			
    db46:	03 43       	nop			
    db48:	03 43       	nop			
    db4a:	03 43       	nop			
    db4c:	03 43       	nop			
    db4e:	03 43       	nop			
    db50:	03 43       	nop			
    db52:	03 43       	nop			
    db54:	03 43       	nop			
    db56:	03 43       	nop			
    db58:	03 43       	nop			
    db5a:	03 43       	nop			
    db5c:	03 43       	nop			
    db5e:	03 43       	nop			
    db60:	03 43       	nop			
    db62:	03 43       	nop			
    db64:	03 43       	nop			
    db66:	03 43       	nop			
    db68:	03 43       	nop			
    db6a:	03 43       	nop			
    db6c:	03 43       	nop			
    db6e:	03 43       	nop			
    db70:	03 43       	nop			
    db72:	03 43       	nop			
    db74:	03 43       	nop			
    db76:	03 43       	nop			
    db78:	03 43       	nop			
    db7a:	03 43       	nop			
    db7c:	03 43       	nop			
    db7e:	03 43       	nop			
    db80:	03 43       	nop			
    db82:	03 43       	nop			
    db84:	03 43       	nop			
    db86:	03 43       	nop			
    db88:	03 43       	nop			
    db8a:	03 43       	nop			
    db8c:	03 43       	nop			
    db8e:	03 43       	nop			
    db90:	03 43       	nop			
    db92:	03 43       	nop			
    db94:	03 43       	nop			
    db96:	03 43       	nop			
    db98:	03 43       	nop			
    db9a:	03 43       	nop			
    db9c:	03 43       	nop			
    db9e:	03 43       	nop			
    dba0:	03 43       	nop			
    dba2:	03 43       	nop			
    dba4:	03 43       	nop			
    dba6:	03 43       	nop			
    dba8:	03 43       	nop			
    dbaa:	03 43       	nop			
    dbac:	03 43       	nop			
    dbae:	03 43       	nop			
    dbb0:	03 43       	nop			
    dbb2:	03 43       	nop			
    dbb4:	03 43       	nop			
    dbb6:	03 43       	nop			
    dbb8:	03 43       	nop			
    dbba:	03 43       	nop			
    dbbc:	03 43       	nop			
    dbbe:	03 43       	nop			
    dbc0:	03 43       	nop			
    dbc2:	03 43       	nop			
    dbc4:	03 43       	nop			
    dbc6:	03 43       	nop			
    dbc8:	03 43       	nop			
    dbca:	03 43       	nop			
    dbcc:	03 43       	nop			
    dbce:	03 43       	nop			
    dbd0:	03 43       	nop			
    dbd2:	03 43       	nop			
    dbd4:	03 43       	nop			
    dbd6:	03 43       	nop			
    dbd8:	03 43       	nop			
    dbda:	03 43       	nop			
    dbdc:	03 43       	nop			
    dbde:	03 43       	nop			
    dbe0:	03 43       	nop			
    dbe2:	03 43       	nop			
    dbe4:	03 43       	nop			
    dbe6:	03 43       	nop			
    dbe8:	03 43       	nop			
    dbea:	03 43       	nop			
    dbec:	03 43       	nop			
    dbee:	03 43       	nop			
    dbf0:	03 43       	nop			
    dbf2:	03 43       	nop			
    dbf4:	03 43       	nop			
    dbf6:	03 43       	nop			
    dbf8:	03 43       	nop			
    dbfa:	03 43       	nop			
    dbfc:	03 43       	nop			
    dbfe:	03 43       	nop			
    dc00:	03 43       	nop			
    dc02:	03 43       	nop			
    dc04:	03 43       	nop			
    dc06:	03 43       	nop			
    dc08:	03 43       	nop			
    dc0a:	03 43       	nop			
    dc0c:	03 43       	nop			
    dc0e:	03 43       	nop			
    dc10:	03 43       	nop			
    dc12:	03 43       	nop			
    dc14:	03 43       	nop			
    dc16:	03 43       	nop			
    dc18:	03 43       	nop			
    dc1a:	03 43       	nop			
    dc1c:	03 43       	nop			
    dc1e:	03 43       	nop			
    dc20:	03 43       	nop			
    dc22:	03 43       	nop			
    dc24:	03 43       	nop			
    dc26:	03 43       	nop			
    dc28:	03 43       	nop			
    dc2a:	03 43       	nop			
    dc2c:	03 43       	nop			
    dc2e:	03 43       	nop			
    dc30:	03 43       	nop			
    dc32:	03 43       	nop			
    dc34:	03 43       	nop			
    dc36:	03 43       	nop			
    dc38:	03 43       	nop			
    dc3a:	03 43       	nop			
    dc3c:	03 43       	nop			
    dc3e:	03 43       	nop			
    dc40:	03 43       	nop			
    dc42:	03 43       	nop			
    dc44:	03 43       	nop			
    dc46:	03 43       	nop			
    dc48:	03 43       	nop			
    dc4a:	03 43       	nop			
    dc4c:	03 43       	nop			
    dc4e:	03 43       	nop			
    dc50:	03 43       	nop			
    dc52:	03 43       	nop			
    dc54:	03 43       	nop			
    dc56:	03 43       	nop			
    dc58:	03 43       	nop			
    dc5a:	03 43       	nop			
    dc5c:	03 43       	nop			
    dc5e:	03 43       	nop			
    dc60:	03 43       	nop			
    dc62:	03 43       	nop			
    dc64:	03 43       	nop			
    dc66:	03 43       	nop			
    dc68:	03 43       	nop			
    dc6a:	03 43       	nop			
    dc6c:	03 43       	nop			
    dc6e:	03 43       	nop			
    dc70:	03 43       	nop			
    dc72:	03 43       	nop			
    dc74:	03 43       	nop			
    dc76:	03 43       	nop			
    dc78:	03 43       	nop			
    dc7a:	03 43       	nop			
    dc7c:	03 43       	nop			
    dc7e:	03 43       	nop			
    dc80:	03 43       	nop			
    dc82:	03 43       	nop			
    dc84:	03 43       	nop			
    dc86:	03 43       	nop			
    dc88:	03 43       	nop			
    dc8a:	03 43       	nop			
    dc8c:	03 43       	nop			
    dc8e:	03 43       	nop			
    dc90:	03 43       	nop			
    dc92:	03 43       	nop			
    dc94:	03 43       	nop			
    dc96:	03 43       	nop			
    dc98:	03 43       	nop			
    dc9a:	03 43       	nop			
    dc9c:	03 43       	nop			
    dc9e:	03 43       	nop			
    dca0:	03 43       	nop			
    dca2:	03 43       	nop			
    dca4:	03 43       	nop			
    dca6:	03 43       	nop			
    dca8:	03 43       	nop			
    dcaa:	03 43       	nop			
    dcac:	03 43       	nop			
    dcae:	03 43       	nop			
    dcb0:	03 43       	nop			
    dcb2:	03 43       	nop			
    dcb4:	03 43       	nop			
    dcb6:	03 43       	nop			
    dcb8:	03 43       	nop			
    dcba:	03 43       	nop			
    dcbc:	03 43       	nop			
    dcbe:	03 43       	nop			
    dcc0:	03 43       	nop			
    dcc2:	03 43       	nop			
    dcc4:	03 43       	nop			
    dcc6:	03 43       	nop			
    dcc8:	03 43       	nop			
    dcca:	03 43       	nop			
    dccc:	03 43       	nop			
    dcce:	03 43       	nop			
    dcd0:	03 43       	nop			
    dcd2:	03 43       	nop			
    dcd4:	03 43       	nop			
    dcd6:	03 43       	nop			
    dcd8:	03 43       	nop			
    dcda:	03 43       	nop			
    dcdc:	03 43       	nop			
    dcde:	03 43       	nop			
    dce0:	03 43       	nop			
    dce2:	03 43       	nop			
    dce4:	03 43       	nop			
    dce6:	03 43       	nop			
    dce8:	03 43       	nop			
    dcea:	03 43       	nop			
    dcec:	03 43       	nop			
    dcee:	03 43       	nop			
    dcf0:	03 43       	nop			
    dcf2:	03 43       	nop			
    dcf4:	03 43       	nop			
    dcf6:	03 43       	nop			
    dcf8:	03 43       	nop			
    dcfa:	03 43       	nop			
    dcfc:	03 43       	nop			
    dcfe:	03 43       	nop			
    dd00:	03 43       	nop			
    dd02:	03 43       	nop			
    dd04:	03 43       	nop			
    dd06:	03 43       	nop			
    dd08:	03 43       	nop			
    dd0a:	03 43       	nop			
    dd0c:	03 43       	nop			
    dd0e:	03 43       	nop			
    dd10:	03 43       	nop			
    dd12:	03 43       	nop			
    dd14:	03 43       	nop			
    dd16:	03 43       	nop			
    dd18:	03 43       	nop			
    dd1a:	03 43       	nop			
    dd1c:	03 43       	nop			
    dd1e:	03 43       	nop			
    dd20:	03 43       	nop			
    dd22:	03 43       	nop			
    dd24:	03 43       	nop			
    dd26:	03 43       	nop			
    dd28:	03 43       	nop			
    dd2a:	03 43       	nop			
    dd2c:	03 43       	nop			
    dd2e:	03 43       	nop			
    dd30:	03 43       	nop			
    dd32:	03 43       	nop			
    dd34:	03 43       	nop			
    dd36:	03 43       	nop			
    dd38:	03 43       	nop			
    dd3a:	03 43       	nop			
    dd3c:	03 43       	nop			
    dd3e:	03 43       	nop			
    dd40:	03 43       	nop			
    dd42:	03 43       	nop			
    dd44:	03 43       	nop			
    dd46:	03 43       	nop			
    dd48:	03 43       	nop			
    dd4a:	03 43       	nop			
    dd4c:	03 43       	nop			
    dd4e:	03 43       	nop			
    dd50:	03 43       	nop			
    dd52:	03 43       	nop			
    dd54:	03 43       	nop			
    dd56:	03 43       	nop			
    dd58:	03 43       	nop			
    dd5a:	03 43       	nop			
    dd5c:	03 43       	nop			
    dd5e:	03 43       	nop			
    dd60:	03 43       	nop			
    dd62:	03 43       	nop			
    dd64:	03 43       	nop			
    dd66:	03 43       	nop			
    dd68:	03 43       	nop			
    dd6a:	03 43       	nop			
    dd6c:	03 43       	nop			
    dd6e:	03 43       	nop			
    dd70:	03 43       	nop			
    dd72:	03 43       	nop			
    dd74:	03 43       	nop			
    dd76:	03 43       	nop			
    dd78:	03 43       	nop			
    dd7a:	03 43       	nop			
    dd7c:	03 43       	nop			
    dd7e:	03 43       	nop			
    dd80:	03 43       	nop			
    dd82:	03 43       	nop			
    dd84:	03 43       	nop			
    dd86:	03 43       	nop			
    dd88:	03 43       	nop			
    dd8a:	03 43       	nop			
    dd8c:	03 43       	nop			
    dd8e:	03 43       	nop			
    dd90:	03 43       	nop			
    dd92:	03 43       	nop			
    dd94:	03 43       	nop			
    dd96:	03 43       	nop			
    dd98:	03 43       	nop			
    dd9a:	03 43       	nop			
    dd9c:	03 43       	nop			
    dd9e:	03 43       	nop			
    dda0:	03 43       	nop			
    dda2:	03 43       	nop			
    dda4:	03 43       	nop			
    dda6:	03 43       	nop			
    dda8:	03 43       	nop			
    ddaa:	03 43       	nop			
    ddac:	03 43       	nop			
    ddae:	03 43       	nop			
    ddb0:	03 43       	nop			
    ddb2:	03 43       	nop			
    ddb4:	03 43       	nop			
    ddb6:	03 43       	nop			
    ddb8:	03 43       	nop			
    ddba:	03 43       	nop			
    ddbc:	03 43       	nop			
    ddbe:	03 43       	nop			
    ddc0:	03 43       	nop			
    ddc2:	03 43       	nop			
    ddc4:	03 43       	nop			
    ddc6:	03 43       	nop			
    ddc8:	03 43       	nop			
    ddca:	03 43       	nop			
    ddcc:	03 43       	nop			
    ddce:	03 43       	nop			
    ddd0:	03 43       	nop			
    ddd2:	03 43       	nop			
    ddd4:	03 43       	nop			
    ddd6:	03 43       	nop			
    ddd8:	03 43       	nop			
    ddda:	03 43       	nop			
    dddc:	03 43       	nop			
    ddde:	03 43       	nop			
    dde0:	03 43       	nop			
    dde2:	03 43       	nop			
    dde4:	03 43       	nop			
    dde6:	03 43       	nop			
    dde8:	03 43       	nop			
    ddea:	03 43       	nop			
    ddec:	03 43       	nop			
    ddee:	03 43       	nop			
    ddf0:	03 43       	nop			
    ddf2:	03 43       	nop			
    ddf4:	03 43       	nop			
    ddf6:	03 43       	nop			
    ddf8:	03 43       	nop			
    ddfa:	03 43       	nop			
    ddfc:	03 43       	nop			
    ddfe:	03 43       	nop			
    de00:	03 43       	nop			
    de02:	03 43       	nop			
    de04:	03 43       	nop			
    de06:	03 43       	nop			
    de08:	03 43       	nop			
    de0a:	03 43       	nop			
    de0c:	03 43       	nop			
    de0e:	03 43       	nop			
    de10:	03 43       	nop			
    de12:	03 43       	nop			
    de14:	03 43       	nop			
    de16:	03 43       	nop			
    de18:	03 43       	nop			
    de1a:	03 43       	nop			
    de1c:	03 43       	nop			
    de1e:	03 43       	nop			
    de20:	03 43       	nop			
    de22:	03 43       	nop			
    de24:	03 43       	nop			
    de26:	03 43       	nop			
    de28:	03 43       	nop			
    de2a:	03 43       	nop			
    de2c:	03 43       	nop			
    de2e:	03 43       	nop			
    de30:	03 43       	nop			
    de32:	03 43       	nop			
    de34:	03 43       	nop			
    de36:	03 43       	nop			
    de38:	03 43       	nop			
    de3a:	03 43       	nop			
    de3c:	03 43       	nop			
    de3e:	03 43       	nop			
    de40:	03 43       	nop			
    de42:	03 43       	nop			
    de44:	03 43       	nop			
    de46:	03 43       	nop			
    de48:	03 43       	nop			
    de4a:	03 43       	nop			
    de4c:	03 43       	nop			
    de4e:	03 43       	nop			
    de50:	03 43       	nop			
    de52:	03 43       	nop			
    de54:	03 43       	nop			
    de56:	03 43       	nop			
    de58:	03 43       	nop			
    de5a:	03 43       	nop			
    de5c:	03 43       	nop			
    de5e:	03 43       	nop			
    de60:	03 43       	nop			
    de62:	03 43       	nop			
    de64:	03 43       	nop			
    de66:	03 43       	nop			
    de68:	03 43       	nop			
    de6a:	03 43       	nop			
    de6c:	03 43       	nop			
    de6e:	03 43       	nop			
    de70:	03 43       	nop			
    de72:	03 43       	nop			
    de74:	03 43       	nop			
    de76:	03 43       	nop			
    de78:	03 43       	nop			
    de7a:	03 43       	nop			
    de7c:	03 43       	nop			
    de7e:	03 43       	nop			
    de80:	03 43       	nop			
    de82:	03 43       	nop			
    de84:	03 43       	nop			
    de86:	03 43       	nop			
    de88:	03 43       	nop			
    de8a:	03 43       	nop			
    de8c:	03 43       	nop			
    de8e:	03 43       	nop			
    de90:	03 43       	nop			
    de92:	03 43       	nop			
    de94:	03 43       	nop			
    de96:	03 43       	nop			
    de98:	03 43       	nop			
    de9a:	03 43       	nop			
    de9c:	03 43       	nop			
    de9e:	03 43       	nop			
    dea0:	03 43       	nop			
    dea2:	03 43       	nop			
    dea4:	03 43       	nop			
    dea6:	03 43       	nop			
    dea8:	03 43       	nop			
    deaa:	03 43       	nop			
    deac:	03 43       	nop			
    deae:	03 43       	nop			
    deb0:	03 43       	nop			
    deb2:	03 43       	nop			
    deb4:	03 43       	nop			
    deb6:	03 43       	nop			
    deb8:	03 43       	nop			
    deba:	03 43       	nop			
    debc:	03 43       	nop			
    debe:	03 43       	nop			
    dec0:	03 43       	nop			
    dec2:	03 43       	nop			
    dec4:	03 43       	nop			
    dec6:	03 43       	nop			
    dec8:	03 43       	nop			
    deca:	03 43       	nop			
    decc:	03 43       	nop			
    dece:	03 43       	nop			
    ded0:	03 43       	nop			
    ded2:	03 43       	nop			
    ded4:	03 43       	nop			
    ded6:	03 43       	nop			
    ded8:	03 43       	nop			
    deda:	03 43       	nop			
    dedc:	03 43       	nop			
    dede:	03 43       	nop			
    dee0:	03 43       	nop			
    dee2:	03 43       	nop			
    dee4:	03 43       	nop			
    dee6:	03 43       	nop			
    dee8:	03 43       	nop			
    deea:	03 43       	nop			
    deec:	03 43       	nop			
    deee:	03 43       	nop			
    def0:	03 43       	nop			
    def2:	03 43       	nop			
    def4:	03 43       	nop			
    def6:	03 43       	nop			
    def8:	03 43       	nop			
    defa:	03 43       	nop			
    defc:	03 43       	nop			
    defe:	03 43       	nop			
    df00:	03 43       	nop			
    df02:	03 43       	nop			
    df04:	03 43       	nop			
    df06:	03 43       	nop			
    df08:	03 43       	nop			
    df0a:	03 43       	nop			
    df0c:	03 43       	nop			
    df0e:	03 43       	nop			
    df10:	03 43       	nop			
    df12:	03 43       	nop			
    df14:	03 43       	nop			
    df16:	03 43       	nop			
    df18:	03 43       	nop			
    df1a:	03 43       	nop			
    df1c:	03 43       	nop			
    df1e:	03 43       	nop			
    df20:	03 43       	nop			
    df22:	03 43       	nop			
    df24:	03 43       	nop			
    df26:	03 43       	nop			
    df28:	03 43       	nop			
    df2a:	03 43       	nop			
    df2c:	03 43       	nop			
    df2e:	03 43       	nop			
    df30:	03 43       	nop			
    df32:	03 43       	nop			
    df34:	03 43       	nop			
    df36:	03 43       	nop			
    df38:	03 43       	nop			
    df3a:	03 43       	nop			
    df3c:	03 43       	nop			
    df3e:	03 43       	nop			
    df40:	03 43       	nop			
    df42:	03 43       	nop			
    df44:	03 43       	nop			
    df46:	03 43       	nop			
    df48:	03 43       	nop			
    df4a:	03 43       	nop			
    df4c:	03 43       	nop			
    df4e:	03 43       	nop			
    df50:	03 43       	nop			
    df52:	03 43       	nop			
    df54:	03 43       	nop			
    df56:	03 43       	nop			
    df58:	03 43       	nop			
    df5a:	03 43       	nop			
    df5c:	03 43       	nop			
    df5e:	03 43       	nop			
    df60:	03 43       	nop			
    df62:	03 43       	nop			
    df64:	03 43       	nop			
    df66:	03 43       	nop			
    df68:	03 43       	nop			
    df6a:	03 43       	nop			
    df6c:	03 43       	nop			
    df6e:	03 43       	nop			
    df70:	03 43       	nop			
    df72:	03 43       	nop			
    df74:	03 43       	nop			
    df76:	03 43       	nop			
    df78:	03 43       	nop			
    df7a:	03 43       	nop			
    df7c:	03 43       	nop			
    df7e:	03 43       	nop			
    df80:	03 43       	nop			
    df82:	03 43       	nop			
    df84:	03 43       	nop			
    df86:	03 43       	nop			
    df88:	03 43       	nop			
    df8a:	03 43       	nop			
    df8c:	03 43       	nop			
    df8e:	03 43       	nop			
    df90:	03 43       	nop			
    df92:	03 43       	nop			
    df94:	03 43       	nop			
    df96:	03 43       	nop			
    df98:	03 43       	nop			
    df9a:	03 43       	nop			
    df9c:	03 43       	nop			
    df9e:	03 43       	nop			
    dfa0:	03 43       	nop			
    dfa2:	03 43       	nop			
    dfa4:	03 43       	nop			
    dfa6:	03 43       	nop			
    dfa8:	03 43       	nop			
    dfaa:	03 43       	nop			
    dfac:	03 43       	nop			
    dfae:	03 43       	nop			
    dfb0:	03 43       	nop			
    dfb2:	03 43       	nop			
    dfb4:	03 43       	nop			
    dfb6:	03 43       	nop			
    dfb8:	03 43       	nop			
    dfba:	03 43       	nop			
    dfbc:	03 43       	nop			
    dfbe:	03 43       	nop			
    dfc0:	03 43       	nop			
    dfc2:	03 43       	nop			
    dfc4:	03 43       	nop			
    dfc6:	03 43       	nop			
    dfc8:	03 43       	nop			
    dfca:	03 43       	nop			
    dfcc:	03 43       	nop			
    dfce:	03 43       	nop			
    dfd0:	03 43       	nop			
    dfd2:	03 43       	nop			
    dfd4:	03 43       	nop			
    dfd6:	03 43       	nop			
    dfd8:	03 43       	nop			
    dfda:	03 43       	nop			
    dfdc:	03 43       	nop			
    dfde:	03 43       	nop			
    dfe0:	03 43       	nop			
    dfe2:	03 43       	nop			
    dfe4:	03 43       	nop			
    dfe6:	03 43       	nop			
    dfe8:	03 43       	nop			
    dfea:	03 43       	nop			
    dfec:	03 43       	nop			
    dfee:	03 43       	nop			
    dff0:	03 43       	nop			
    dff2:	03 43       	nop			
    dff4:	03 43       	nop			
    dff6:	03 43       	nop			
    dff8:	03 43       	nop			
    dffa:	03 43       	nop			
    dffc:	03 43       	nop			

0000dffe <CASU_exit>:
}

/* [CASU-SW] Exit function */
__attribute__((section(".do_mac.leave"))) __attribute__((naked)) void CASU_exit()
{
  __asm__ volatile("br   r5"
    dffe:	00 45       	br	r5		

Disassembly of section .vectors:

0000ffe0 <__ivtbl_16>:
    ffe0:	6a e0 6a e0 6a e0 6a e0 6a e0 6a e0 6a e0 6a e0     j.j.j.j.j.j.j.j.
    fff0:	6a e0 6a e0 6a e0 26 a2 6a e0 6a e0 6a e0 00 a0     j.j.j.&.j.j.j...
